EXPORTS
	??0CCUICertificateInfo@CommonUI@SwiUI@@IAE@XZ @ 1 NONAME ; SwiUI::CommonUI::CCUICertificateInfo::CCUICertificateInfo(void)
	??1CCUICancelTimer@CommonUI@SwiUI@@UAE@XZ @ 2 NONAME ; SwiUI::CommonUI::CCUICancelTimer::~CCUICancelTimer(void)
	??1CCUICertificateInfo@CommonUI@SwiUI@@UAE@XZ @ 3 NONAME ; SwiUI::CommonUI::CCUICertificateInfo::~CCUICertificateInfo(void)
	??1CCUIDetailsDialog@CommonUI@SwiUI@@UAE@XZ @ 4 NONAME ; SwiUI::CommonUI::CCUIDetailsDialog::~CCUIDetailsDialog(void)
	??1CCUIDialogs@CommonUI@SwiUI@@UAE@XZ @ 5 NONAME ; SwiUI::CommonUI::CCUIDialogs::~CCUIDialogs(void)
	?BaseConstructL@CCUICertificateInfo@CommonUI@SwiUI@@IAEXABVCX509Certificate@@@Z @ 6 NONAME ; void SwiUI::CommonUI::CCUICertificateInfo::BaseConstructL(class CX509Certificate const &)
	?CloseProgressDialogL@CCUIDialogs@CommonUI@SwiUI@@QAEXXZ @ 7 NONAME ; void SwiUI::CommonUI::CCUIDialogs::CloseProgressDialogL(void)
	?CloseWaitDialogL@CCUIDialogs@CommonUI@SwiUI@@QAEXXZ @ 8 NONAME ; void SwiUI::CommonUI::CCUIDialogs::CloseWaitDialogL(void)
	?ConstructVersionStringLC@CUIUtils@CommonUI@SwiUI@@SAPAVHBufC16@@HHH@Z @ 9 NONAME ; class HBufC16 * SwiUI::CommonUI::CUIUtils::ConstructVersionStringLC(int, int, int)
	?ExecuteLD@CCUIDetailsDialog@CommonUI@SwiUI@@QAEHAAVMCUIInfoIterator@23@@Z @ 10 NONAME ; int SwiUI::CommonUI::CCUIDetailsDialog::ExecuteLD(class SwiUI::CommonUI::MCUIInfoIterator &)
	?ExecuteLD@CCUIDetailsDialog@CommonUI@SwiUI@@QAEHAAVMCUIInfoIterator@23@AAVRFile@@@Z @ 11 NONAME ; int SwiUI::CommonUI::CCUIDetailsDialog::ExecuteLD(class SwiUI::CommonUI::MCUIInfoIterator &, class RFile &)
	?ExecuteLD@CCUIDetailsDialog@CommonUI@SwiUI@@QAEHAAVMCUIInfoIterator@23@ABV?$RPointerArray@VCCUICertificateInfo@CommonUI@SwiUI@@@@@Z @ 12 NONAME ; int SwiUI::CommonUI::CCUIDetailsDialog::ExecuteLD(class SwiUI::CommonUI::MCUIInfoIterator &, class RPointerArray<class SwiUI::CommonUI::CCUICertificateInfo> const &)
	?ExecuteLD@CCUIDetailsDialog@CommonUI@SwiUI@@QAEHAAVMCUIInfoIterator@23@ABV?$RPointerArray@VCCUICertificateInfo@CommonUI@SwiUI@@@@AAVRFile@@@Z @ 13 NONAME ; int SwiUI::CommonUI::CCUIDetailsDialog::ExecuteLD(class SwiUI::CommonUI::MCUIInfoIterator &, class RPointerArray<class SwiUI::CommonUI::CCUICertificateInfo> const &, class RFile &)
	?LaunchHelpL@CCUIDialogs@CommonUI@SwiUI@@QAEXABVTDesC16@@@Z @ 14 NONAME ; void SwiUI::CommonUI::CCUIDialogs::LaunchHelpL(class TDesC16 const &)
	?LoadResourceFileL@CUIUtils@CommonUI@SwiUI@@SAHABVTDesC16@@PAVCCoeEnv@@@Z @ 15 NONAME ; int SwiUI::CommonUI::CUIUtils::LoadResourceFileL(class TDesC16 const &, class CCoeEnv *)
	?NewL@CCUICancelTimer@CommonUI@SwiUI@@SAPAV123@PAVMCUICancellable@23@@Z @ 16 NONAME ; class SwiUI::CommonUI::CCUICancelTimer * SwiUI::CommonUI::CCUICancelTimer::NewL(class SwiUI::CommonUI::MCUICancellable *)
	?NewL@CCUICertificateInfo@CommonUI@SwiUI@@SAPAV123@ABVCX509Certificate@@@Z @ 17 NONAME ; class SwiUI::CommonUI::CCUICertificateInfo * SwiUI::CommonUI::CCUICertificateInfo::NewL(class CX509Certificate const &)
	?NewL@CCUIDetailsDialog@CommonUI@SwiUI@@SAPAV123@H@Z @ 18 NONAME ; class SwiUI::CommonUI::CCUIDetailsDialog * SwiUI::CommonUI::CCUIDetailsDialog::NewL(int)
	?NewL@CCUIDetailsDialog@CommonUI@SwiUI@@SAPAV123@XZ @ 19 NONAME ; class SwiUI::CommonUI::CCUIDetailsDialog * SwiUI::CommonUI::CCUIDetailsDialog::NewL(void)
	?NewL@CCUIDialogs@CommonUI@SwiUI@@SAPAV123@XZ @ 20 NONAME ; class SwiUI::CommonUI::CCUIDialogs * SwiUI::CommonUI::CCUIDialogs::NewL(void)
	?ResetProgressDialogL@CCUIDialogs@CommonUI@SwiUI@@QAEXXZ @ 21 NONAME ; void SwiUI::CommonUI::CCUIDialogs::ResetProgressDialogL(void)
	?SetProgressDialogFinalValueL@CCUIDialogs@CommonUI@SwiUI@@QAEXH@Z @ 22 NONAME ; void SwiUI::CommonUI::CCUIDialogs::SetProgressDialogFinalValueL(int)
	?ShowConfirmationQueryL@CCUIDialogs@CommonUI@SwiUI@@QBEHABVTDesC16@@H@Z @ 23 NONAME ; int SwiUI::CommonUI::CCUIDialogs::ShowConfirmationQueryL(class TDesC16 const &, int) const
	?ShowConfirmationQueryL@CCUIDialogs@CommonUI@SwiUI@@QBEHHH@Z @ 24 NONAME ; int SwiUI::CommonUI::CCUIDialogs::ShowConfirmationQueryL(int, int) const
	?ShowDelayedWaitDialogL@CCUIDialogs@CommonUI@SwiUI@@QAEXHPAVMCUIWaitDialogCallback@23@H@Z @ 25 NONAME ; void SwiUI::CommonUI::CCUIDialogs::ShowDelayedWaitDialogL(int, class SwiUI::CommonUI::MCUIWaitDialogCallback *, int)
	?ShowDriveSelectionDialogL@CCUIDialogs@CommonUI@SwiUI@@QAEH_JABV?$RArray@VTDriveUnit@@@@ABV?$RArray@_J@@AAH@Z @ 26 NONAME ; int SwiUI::CommonUI::CCUIDialogs::ShowDriveSelectionDialogL(long long, class RArray<class TDriveUnit> const &, class RArray<long long> const &, int &)
	?ShowErrorNoteL@CCUIDialogs@CommonUI@SwiUI@@QBEXABVTDesC16@@@Z @ 27 NONAME ; void SwiUI::CommonUI::CCUIDialogs::ShowErrorNoteL(class TDesC16 const &) const
	?ShowErrorNoteL@CCUIDialogs@CommonUI@SwiUI@@QBEXH@Z @ 28 NONAME ; void SwiUI::CommonUI::CCUIDialogs::ShowErrorNoteL(int) const
	?ShowProgressDialogL@CCUIDialogs@CommonUI@SwiUI@@QAEXABVTDesC16@@PAVMCUIWaitDialogCallback@23@H@Z @ 29 NONAME ; void SwiUI::CommonUI::CCUIDialogs::ShowProgressDialogL(class TDesC16 const &, class SwiUI::CommonUI::MCUIWaitDialogCallback *, int)
	?ShowProgressDialogL@CCUIDialogs@CommonUI@SwiUI@@QAEXHPAVMCUIWaitDialogCallback@23@H@Z @ 30 NONAME ; void SwiUI::CommonUI::CCUIDialogs::ShowProgressDialogL(int, class SwiUI::CommonUI::MCUIWaitDialogCallback *, int)
	?ShowSecurityWarningDialogL@CCUIDialogs@CommonUI@SwiUI@@QAEHXZ @ 31 NONAME ; int SwiUI::CommonUI::CCUIDialogs::ShowSecurityWarningDialogL(void)
	?ShowWaitDialogL@CCUIDialogs@CommonUI@SwiUI@@QAEXHPAVMCUIWaitDialogCallback@23@H@Z @ 32 NONAME ; void SwiUI::CommonUI::CCUIDialogs::ShowWaitDialogL(int, class SwiUI::CommonUI::MCUIWaitDialogCallback *, int)
	?StartCancelling@CCUICancelTimer@CommonUI@SwiUI@@QAEXXZ @ 33 NONAME ; void SwiUI::CommonUI::CCUICancelTimer::StartCancelling(void)
	?UpdateProgressDialogValueL@CCUIDialogs@CommonUI@SwiUI@@QAEXH@Z @ 34 NONAME ; void SwiUI::CommonUI::CCUIDialogs::UpdateProgressDialogValueL(int)
	?X509Certificate@CCUICertificateInfo@CommonUI@SwiUI@@QAEPAVCX509Certificate@@XZ @ 35 NONAME ; class CX509Certificate * SwiUI::CommonUI::CCUICertificateInfo::X509Certificate(void)
	?ShowInstallationCompleteQueryL@CCUIDialogs@CommonUI@SwiUI@@QBEHABVMDesC16Array@@0ABVCAknIconArray@@AAH@Z @ 36 NONAME ; int SwiUI::CommonUI::CCUIDialogs::ShowInstallationCompleteQueryL(class MDesC16Array const &, class MDesC16Array const &, class CAknIconArray const &, int &) const
	?ShowUninstallConfirmationForSeveralAppsL@CCUIDialogs@CommonUI@SwiUI@@QBEHABVTDesC16@@ABVMDesC16Array@@H@Z @ 37 NONAME ; int SwiUI::CommonUI::CCUIDialogs::ShowUninstallConfirmationForSeveralAppsL(class TDesC16 const &, class MDesC16Array const &, int) const
	?NewL@CCUIDetailsDialog@CommonUI@SwiUI@@SAPAV123@HH@Z @ 38 NONAME ; class SwiUI::CommonUI::CCUIDetailsDialog * SwiUI::CommonUI::CCUIDetailsDialog::NewL(int, int)
	?NewL@CCUIDetailsDialog@CommonUI@SwiUI@@SAPAV123@HW4TCUIDetailsHeader@123@@Z @ 39 NONAME ; class SwiUI::CommonUI::CCUIDetailsDialog * SwiUI::CommonUI::CCUIDetailsDialog::NewL(int, enum SwiUI::CommonUI::CCUIDetailsDialog::TCUIDetailsHeader)

