EXPORTS
	??0RSWInstLauncher@SwiUI@@QAE@XZ @ 1 NONAME ; SwiUI::RSWInstLauncher::RSWInstLauncher(void)
	?CancelAsyncRequest@RSWInstLauncher@SwiUI@@QAEHH@Z @ 2 NONAME ; int SwiUI::RSWInstLauncher::CancelAsyncRequest(int)
	?Close@RSWInstLauncher@SwiUI@@QAEXXZ @ 3 NONAME ; void SwiUI::RSWInstLauncher::Close(void)
	?Connect@RSWInstLauncher@SwiUI@@QAEHXZ @ 4 NONAME ; int SwiUI::RSWInstLauncher::Connect(void)
	?GetLastErrorL@RSWInstLauncher@SwiUI@@QAEPAVCErrDetails@2@XZ @ 5 NONAME ; class SwiUI::CErrDetails * SwiUI::RSWInstLauncher::GetLastErrorL(void)
	?Install@RSWInstLauncher@SwiUI@@QAEHAAVRFile@@@Z @ 6 NONAME ; int SwiUI::RSWInstLauncher::Install(class RFile &)
	?Install@RSWInstLauncher@SwiUI@@QAEHAAVRFile@@ABVTDesC8@@@Z @ 7 NONAME ; int SwiUI::RSWInstLauncher::Install(class RFile &, class TDesC8 const &)
	?Install@RSWInstLauncher@SwiUI@@QAEHABVTDesC16@@@Z @ 8 NONAME ; int SwiUI::RSWInstLauncher::Install(class TDesC16 const &)
	?Install@RSWInstLauncher@SwiUI@@QAEHABVTDesC16@@ABVTDesC8@@@Z @ 9 NONAME ; int SwiUI::RSWInstLauncher::Install(class TDesC16 const &, class TDesC8 const &)
	?Install@RSWInstLauncher@SwiUI@@QAEXAAVTRequestStatus@@AAVRFile@@@Z @ 10 NONAME ; void SwiUI::RSWInstLauncher::Install(class TRequestStatus &, class RFile &)
	?Install@RSWInstLauncher@SwiUI@@QAEXAAVTRequestStatus@@AAVRFile@@ABVTDesC8@@@Z @ 11 NONAME ; void SwiUI::RSWInstLauncher::Install(class TRequestStatus &, class RFile &, class TDesC8 const &)
	?Install@RSWInstLauncher@SwiUI@@QAEXAAVTRequestStatus@@ABVTDesC16@@@Z @ 12 NONAME ; void SwiUI::RSWInstLauncher::Install(class TRequestStatus &, class TDesC16 const &)
	?Install@RSWInstLauncher@SwiUI@@QAEXAAVTRequestStatus@@ABVTDesC16@@ABVTDesC8@@@Z @ 13 NONAME ; void SwiUI::RSWInstLauncher::Install(class TRequestStatus &, class TDesC16 const &, class TDesC8 const &)
	?SilentInstall@RSWInstLauncher@SwiUI@@QAEHAAVRFile@@ABVTDesC8@@1@Z @ 14 NONAME ; int SwiUI::RSWInstLauncher::SilentInstall(class RFile &, class TDesC8 const &, class TDesC8 const &)
	?SilentInstall@RSWInstLauncher@SwiUI@@QAEHAAVRFile@@ABVTDesC8@@@Z @ 15 NONAME ; int SwiUI::RSWInstLauncher::SilentInstall(class RFile &, class TDesC8 const &)
	?SilentInstall@RSWInstLauncher@SwiUI@@QAEHABVTDesC16@@ABVTDesC8@@1@Z @ 16 NONAME ; int SwiUI::RSWInstLauncher::SilentInstall(class TDesC16 const &, class TDesC8 const &, class TDesC8 const &)
	?SilentInstall@RSWInstLauncher@SwiUI@@QAEHABVTDesC16@@ABVTDesC8@@@Z @ 17 NONAME ; int SwiUI::RSWInstLauncher::SilentInstall(class TDesC16 const &, class TDesC8 const &)
	?SilentInstall@RSWInstLauncher@SwiUI@@QAEXAAVTRequestStatus@@AAVRFile@@ABVTDesC8@@2@Z @ 18 NONAME ; void SwiUI::RSWInstLauncher::SilentInstall(class TRequestStatus &, class RFile &, class TDesC8 const &, class TDesC8 const &)
	?SilentInstall@RSWInstLauncher@SwiUI@@QAEXAAVTRequestStatus@@AAVRFile@@ABVTDesC8@@@Z @ 19 NONAME ; void SwiUI::RSWInstLauncher::SilentInstall(class TRequestStatus &, class RFile &, class TDesC8 const &)
	?SilentInstall@RSWInstLauncher@SwiUI@@QAEXAAVTRequestStatus@@ABVTDesC16@@ABVTDesC8@@2@Z @ 20 NONAME ; void SwiUI::RSWInstLauncher::SilentInstall(class TRequestStatus &, class TDesC16 const &, class TDesC8 const &, class TDesC8 const &)
	?SilentInstall@RSWInstLauncher@SwiUI@@QAEXAAVTRequestStatus@@ABVTDesC16@@ABVTDesC8@@@Z @ 21 NONAME ; void SwiUI::RSWInstLauncher::SilentInstall(class TRequestStatus &, class TDesC16 const &, class TDesC8 const &)
	?SilentUninstall@RSWInstLauncher@SwiUI@@QAEHABVTUid@@ABVTDesC8@@1@Z @ 22 NONAME ; int SwiUI::RSWInstLauncher::SilentUninstall(class TUid const &, class TDesC8 const &, class TDesC8 const &)
	?SilentUninstall@RSWInstLauncher@SwiUI@@QAEXAAVTRequestStatus@@ABVTUid@@ABVTDesC8@@2@Z @ 23 NONAME ; void SwiUI::RSWInstLauncher::SilentUninstall(class TRequestStatus &, class TUid const &, class TDesC8 const &, class TDesC8 const &)
	?Uninstall@RSWInstLauncher@SwiUI@@QAEHABVTUid@@ABVTDesC8@@@Z @ 24 NONAME ; int SwiUI::RSWInstLauncher::Uninstall(class TUid const &, class TDesC8 const &)
	?Uninstall@RSWInstLauncher@SwiUI@@QAEXAAVTRequestStatus@@ABVTUid@@ABVTDesC8@@@Z @ 25 NONAME ; void SwiUI::RSWInstLauncher::Uninstall(class TRequestStatus &, class TUid const &, class TDesC8 const &)
	?CustomUninstall@RSWInstLauncher@SwiUI@@QAEHW4TOperation@2@ABVTDesC8@@1@Z @ 26 NONAME ; int SwiUI::RSWInstLauncher::CustomUninstall(enum SwiUI::TOperation, class TDesC8 const &, class TDesC8 const &)
	?CustomUninstall@RSWInstLauncher@SwiUI@@QAEXAAVTRequestStatus@@W4TOperation@2@ABVTDesC8@@2@Z @ 27 NONAME ; void SwiUI::RSWInstLauncher::CustomUninstall(class TRequestStatus &, enum SwiUI::TOperation, class TDesC8 const &, class TDesC8 const &)
	??0RSWInstSilentLauncher@SwiUI@@QAE@XZ @ 28 NONAME ; SwiUI::RSWInstSilentLauncher::RSWInstSilentLauncher(void)
	?Connect@RSWInstSilentLauncher@SwiUI@@QAEHXZ @ 29 NONAME ; int SwiUI::RSWInstSilentLauncher::Connect(void)
	?SilentCustomUninstall@RSWInstLauncher@SwiUI@@QAEHW4TOperation@2@ABVTDesC8@@11@Z @ 30 NONAME ; int SwiUI::RSWInstLauncher::SilentCustomUninstall(enum SwiUI::TOperation, class TDesC8 const &, class TDesC8 const &, class TDesC8 const &)
	?SilentCustomUninstall@RSWInstLauncher@SwiUI@@QAEXAAVTRequestStatus@@W4TOperation@2@ABVTDesC8@@22@Z @ 31 NONAME ; void SwiUI::RSWInstLauncher::SilentCustomUninstall(class TRequestStatus &, enum SwiUI::TOperation, class TDesC8 const &, class TDesC8 const &, class TDesC8 const &)

