Certificate:
    Data:
        Version: 1 (0x0)
        Serial Number: 1 (0x1)
        Signature Algorithm: md5WithRSAEncryption
        Issuer: O=Symbian Software Ltd, CN=Symbian Test - RSA
        Validity
            Not Before: May 12 10:18:43 2005 GMT
            Not After : May 10 10:18:43 2015 GMT
        Subject: O=Symbian, CN=certTrev1
        Subject Public Key Info:
            Public Key Algorithm: rsaEncryption
            RSA Public Key: (512 bit)
                Modulus (512 bit):
                    00:c4:40:88:bb:5e:38:6e:36:4e:21:a6:07:a3:d7:
                    db:68:6a:f1:43:36:35:eb:c7:44:2e:b0:d9:f6:f0:
                    47:b6:c9:20:5b:39:11:49:dd:79:25:ee:39:74:8d:
                    50:30:3d:82:89:11:f1:3e:13:83:7b:47:dc:4c:ff:
                    63:14:5f:1d:c3
                Exponent: 65537 (0x10001)
    Signature Algorithm: md5WithRSAEncryption
        9b:f1:63:21:ec:54:72:6f:6c:d0:4f:6a:6b:ef:b3:e4:ec:b4:
        d9:be:30:10:b5:7e:89:5c:1a:28:0a:ba:49:eb:3b:81:f3:ed:
        52:4d:89:6b:e3:16:67:22:f9:78:4c:9c:99:d4:83:4b:ef:2b:
        8b:73:b9:85:d1:27:fa:15:2e:5e:ce:f2:7e:6d:ec:68:1d:e5:
        99:fc:6d:17:12:03:c9:e2:61:a2:02:75:05:f7:8a:77:05:ec:
        c8:42:7e:60:6f:23:ea:25:ff:99:bc:7c:39:3b:42:46:a2:21:
        77:2f:10:66:d1:df:b4:f1:9d:5d:60:e9:12:5a:64:60:ba:1f:
        50:b0
-----BEGIN CERTIFICATE-----
MIIBjDCB9gIBATANBgkqhkiG9w0BAQQFADA8MR0wGwYDVQQKExRTeW1iaWFuIFNv
ZnR3YXJlIEx0ZDEbMBkGA1UEAxMSU3ltYmlhbiBUZXN0IC0gUlNBMB4XDTA1MDUx
MjEwMTg0M1oXDTE1MDUxMDEwMTg0M1owJjEQMA4GA1UEChMHU3ltYmlhbjESMBAG
A1UEAxMJY2VydFRyZXYxMFwwDQYJKoZIhvcNAQEBBQADSwAwSAJBAMRAiLteOG42
TiGmB6PX22hq8UM2NevHRC6w2fbwR7bJIFs5EUndeSXuOXSNUDA9gokR8T4Tg3tH
3Ez/YxRfHcMCAwEAATANBgkqhkiG9w0BAQQFAAOBgQCb8WMh7FRyb2zQT2pr77Pk
7LTZvjAQtX6JXBooCrpJ6zuB8+1STYlr4xZnIvl4TJyZ1INL7yuLc7mF0Sf6FS5e
zvJ+bexoHeWZ/G0XEgPJ4mGiAnUF94p3BezIQn5gbyPqJf+ZvHw5O0JGoiF3LxBm
0d+08Z1dYOkSWmRguh9QsA==
-----END CERTIFICATE-----
