Certificate:
    Data:
        Version: 1 (0x0)
        Serial Number: 2 (0x2)
        Signature Algorithm: md5WithRSAEncryption
        Issuer: O=Symbian Software Ltd, CN=Symbian Test - RSA
        Validity
            Not Before: May 12 10:18:43 2005 GMT
            Not After : May 10 10:18:43 2015 GMT
        Subject: O=Symbian, CN=certTrev2
        Subject Public Key Info:
            Public Key Algorithm: rsaEncryption
            RSA Public Key: (512 bit)
                Modulus (512 bit):
                    00:c7:7d:76:75:e8:6e:87:97:a3:1c:16:4e:55:c2:
                    19:77:e0:73:8c:af:2b:07:a1:69:b9:c2:f4:a1:34:
                    54:93:5e:5a:5a:e9:cd:66:ef:1d:ee:48:5e:74:cb:
                    a3:1b:5e:74:4d:05:8f:8b:f6:5e:1c:95:72:2b:c6:
                    7f:58:25:dd:f9
                Exponent: 65537 (0x10001)
    Signature Algorithm: md5WithRSAEncryption
        70:81:71:f5:6a:55:62:cb:e4:62:2f:65:a6:6a:3d:a9:ad:20:
        55:14:27:ea:10:ae:42:b3:d7:7a:ed:33:24:b8:6f:ae:64:09:
        c3:a3:8b:b5:80:89:39:b8:1f:c2:b5:d6:e9:fc:dd:60:df:a4:
        dc:2d:2e:e2:04:ec:15:0f:4c:6f:e1:fd:82:8f:4b:71:10:32:
        63:56:f1:7b:d2:53:98:71:fb:99:79:5b:69:c0:40:07:65:d7:
        81:67:d6:ba:b3:5f:19:74:1a:54:2e:6d:5c:c8:82:f4:aa:a0:
        a0:be:e8:bb:fd:15:85:8c:1c:bc:54:aa:c4:d8:fe:73:77:67:
        b9:69
-----BEGIN CERTIFICATE-----
MIIBjDCB9gIBAjANBgkqhkiG9w0BAQQFADA8MR0wGwYDVQQKExRTeW1iaWFuIFNv
ZnR3YXJlIEx0ZDEbMBkGA1UEAxMSU3ltYmlhbiBUZXN0IC0gUlNBMB4XDTA1MDUx
MjEwMTg0M1oXDTE1MDUxMDEwMTg0M1owJjEQMA4GA1UEChMHU3ltYmlhbjESMBAG
A1UEAxMJY2VydFRyZXYyMFwwDQYJKoZIhvcNAQEBBQADSwAwSAJBAMd9dnXoboeX
oxwWTlXCGXfgc4yvKwehabnC9KE0VJNeWlrpzWbvHe5IXnTLoxtedE0Fj4v2XhyV
civGf1gl3fkCAwEAATANBgkqhkiG9w0BAQQFAAOBgQBwgXH1alViy+RiL2Wmaj2p
rSBVFCfqEK5Cs9d67TMkuG+uZAnDo4u1gIk5uB/Ctdbp/N1g36TcLS7iBOwVD0xv
4f2Cj0txEDJjVvF70lOYcfuZeVtpwEAHZdeBZ9a6s18ZdBpULm1cyIL0qqCgvui7
/RWFjBy8VKrE2P5zd2e5aQ==
-----END CERTIFICATE-----
