EXPORTS
	_ZN4Usif16CSifNotifierBase4NewLERNS_21MSifOperationsHandlerEjNS0_13TNotifierTypeE @ 1 NONAME
	_ZN4Usif16CSifNotifierBase5NewLCERNS_21MSifOperationsHandlerEjNS0_13TNotifierTypeE @ 2 NONAME
	_ZN4Usif16CSifOperationKey4NewLEv @ 3 NONAME
	_ZN4Usif20CSifOperationEndData4NewLER11RReadStream @ 4 NONAME
	_ZN4Usif20CSifOperationEndData4NewLERK7TDesC16NS_14TErrorCategoryEiS3_S3_ @ 5 NONAME
	_ZN4Usif20CSifOperationEndData5NewLCERK7TDesC16NS_14TErrorCategoryEiS3_S3_ @ 6 NONAME
	_ZN4Usif20CSifOperationEndDataD0Ev @ 7 NONAME
	_ZN4Usif20CSifOperationEndDataD1Ev @ 8 NONAME
	_ZN4Usif20CSifOperationEndDataD2Ev @ 9 NONAME
	_ZN4Usif22CSifOperationStartData4NewLER11RReadStream @ 10 NONAME
	_ZN4Usif22CSifOperationStartData4NewLERK7TDesC16S3_RK13RPointerArrayI7HBufC16ES8_iS3_S3_S3_ @ 11 NONAME
	_ZN4Usif22CSifOperationStartData5NewLCERK7TDesC16S3_RK13RPointerArrayI7HBufC16ES8_iS3_S3_S3_ @ 12 NONAME
	_ZN4Usif22CSifOperationStartDataD0Ev @ 13 NONAME
	_ZN4Usif22CSifOperationStartDataD1Ev @ 14 NONAME
	_ZN4Usif22CSifOperationStartDataD2Ev @ 15 NONAME
	_ZN4Usif22CSifOperationsNotifier10SubscribeLEji @ 16 NONAME
	_ZN4Usif22CSifOperationsNotifier16CancelSubscribeLEj @ 17 NONAME
	_ZN4Usif22CSifOperationsNotifier16CancelSubscribeLEv @ 18 NONAME
	_ZN4Usif22CSifOperationsNotifier4NewLERNS_21MSifOperationsHandlerE @ 19 NONAME
	_ZN4Usif22CSifOperationsNotifier5NewLCERNS_21MSifOperationsHandlerE @ 20 NONAME
	_ZN4Usif24CPublishSifOperationInfo13PublishStartLERNS_22CSifOperationStartDataE @ 21 NONAME
	_ZN4Usif24CPublishSifOperationInfo16PublishProgressLERNS_25CSifOperationProgressDataE @ 22 NONAME
	_ZN4Usif24CPublishSifOperationInfo18PublishCompletionLERNS_20CSifOperationEndDataE @ 23 NONAME
	_ZN4Usif24CPublishSifOperationInfo4NewLEv @ 24 NONAME
	_ZN4Usif24CPublishSifOperationInfo5NewLCEv @ 25 NONAME
	_ZN4Usif25CSifOperationProgressData4NewLER11RReadStream @ 26 NONAME
	_ZN4Usif25CSifOperationProgressData4NewLERK7TDesC16NS_18TSifOperationPhaseENS_21TSifOperationSubPhaseEii @ 27 NONAME
	_ZN4Usif25CSifOperationProgressData5NewLCERK7TDesC16NS_18TSifOperationPhaseENS_21TSifOperationSubPhaseEii @ 28 NONAME
	_ZN4Usif25CSifOperationProgressDataD0Ev @ 29 NONAME
	_ZN4Usif25CSifOperationProgressDataD1Ev @ 30 NONAME
	_ZN4Usif25CSifOperationProgressDataD2Ev @ 31 NONAME
	_ZNK4Usif16CSifOperationKey12ExternalizeLER12RWriteStream @ 32 NONAME
	_ZNK4Usif20CSifOperationEndData12ErrorMessageEv @ 33 NONAME
	_ZNK4Usif20CSifOperationEndData12ExternalizeLER12RWriteStream @ 34 NONAME
	_ZNK4Usif20CSifOperationEndData13ErrorCategoryEv @ 35 NONAME
	_ZNK4Usif20CSifOperationEndData17GlobalComponentIdEv @ 36 NONAME
	_ZNK4Usif20CSifOperationEndData19ErrorMessageDetailsEv @ 37 NONAME
	_ZNK4Usif20CSifOperationEndData9ErrorCodeEv @ 38 NONAME
	_ZNK4Usif22CSifOperationStartData12ExternalizeLER12RWriteStream @ 39 NONAME
	_ZNK4Usif22CSifOperationStartData12SoftwareTypeEv @ 40 NONAME
	_ZNK4Usif22CSifOperationStartData13ComponentIconEv @ 41 NONAME
	_ZNK4Usif22CSifOperationStartData13ComponentNameEv @ 42 NONAME
	_ZNK4Usif22CSifOperationStartData13ComponentSizeEv @ 43 NONAME
	_ZNK4Usif22CSifOperationStartData16ApplicationIconsEv @ 44 NONAME
	_ZNK4Usif22CSifOperationStartData16ApplicationNamesEv @ 45 NONAME
	_ZNK4Usif22CSifOperationStartData17GlobalComponentIdEv @ 46 NONAME
	_ZNK4Usif22CSifOperationStartData8IconPathEv @ 47 NONAME
	_ZNK4Usif25CSifOperationProgressData12ExternalizeLER12RWriteStream @ 48 NONAME
	_ZNK4Usif25CSifOperationProgressData14CurrentProgessEv @ 49 NONAME
	_ZNK4Usif25CSifOperationProgressData17GlobalComponentIdEv @ 50 NONAME
	_ZNK4Usif25CSifOperationProgressData5PhaseEv @ 51 NONAME
	_ZNK4Usif25CSifOperationProgressData5TotalEv @ 52 NONAME
	_ZNK4Usif25CSifOperationProgressData8SubPhaseEv @ 53 NONAME
	_ZTIN4Usif16CSifNotifierBaseE @ 54 NONAME
	_ZTVN4Usif16CSifNotifierBaseE @ 55 NONAME
	_ZN4Usif22CSifOperationStartData4NewLERK7TDesC16S3_RK13RPointerArrayI7HBufC16ES8_iS3_S3_S3_NS_18TSifOperationPhaseE @ 56 NONAME
	_ZN4Usif22CSifOperationStartData5NewLCERK7TDesC16S3_RK13RPointerArrayI7HBufC16ES8_iS3_S3_S3_NS_18TSifOperationPhaseE @ 57 NONAME
	_ZNK4Usif22CSifOperationStartData14OperationPhaseEv @ 58 NONAME
	_ZNK4Usif25CSifOperationProgressData15CurrentProgressEv @ 59 NONAME
	_ZN4Usif16CSifNotifierBase3KeyEv @ 60 NONAME
	_ZN4Usif16CSifNotifierBaseD0Ev @ 61 NONAME
	_ZN4Usif16CSifNotifierBaseD1Ev @ 62 NONAME
	_ZN4Usif16CSifNotifierBaseD2Ev @ 63 NONAME
	_ZN4Usif16CSifOperationKey5NewLCEv @ 64 NONAME
	_ZN4Usif22CSifOperationsNotifierD0Ev @ 65 NONAME
	_ZN4Usif22CSifOperationsNotifierD1Ev @ 66 NONAME
	_ZN4Usif22CSifOperationsNotifierD2Ev @ 67 NONAME
	_ZN4Usif24CPublishSifOperationInfoD0Ev @ 68 NONAME
	_ZN4Usif24CPublishSifOperationInfoD1Ev @ 69 NONAME
	_ZN4Usif24CPublishSifOperationInfoD2Ev @ 70 NONAME

