EXPORTS
	_ZN4Usif14CComponentInfo12SetRootNodeLEPNS0_5CNodeE @ 1 NONAME
	_ZN4Usif14CComponentInfo14PrepareForIpcLER8TIpcArgsi @ 2 NONAME
	_ZN4Usif14CComponentInfo16CApplicationInfo5NewLCERK4TUidRK7TDesC16S7_S7_ @ 3 NONAME
	_ZN4Usif14CComponentInfo16CApplicationInfoD0Ev @ 4 NONAME
	_ZN4Usif14CComponentInfo16CApplicationInfoD1Ev @ 5 NONAME
	_ZN4Usif14CComponentInfo16CApplicationInfoD2Ev @ 6 NONAME
	_ZN4Usif14CComponentInfo19SetRootNodeAsChildLERNS0_5CNodeE @ 7 NONAME
	_ZN4Usif14CComponentInfo4NewLEv @ 8 NONAME
	_ZN4Usif14CComponentInfo5CNode5NewLCERK7TDesC16S4_S4_S4_NS_11TScomoStateENS_14TInstallStatusEiS4_NS_13TAuthenticityERK14TCapabilitySetiiiP13RPointerArrayINS0_16CApplicationInfoEEPSB_IS1_E @ 9 NONAME
	_ZN4Usif14CComponentInfo5CNode9AddChildLEPS1_ @ 10 NONAME
	_ZN4Usif14CComponentInfo5CNodeD0Ev @ 11 NONAME
	_ZN4Usif14CComponentInfo5CNodeD1Ev @ 12 NONAME
	_ZN4Usif14CComponentInfo5CNodeD2Ev @ 13 NONAME
	_ZN4Usif14CComponentInfo5NewLCEv @ 14 NONAME
	_ZN4Usif14CComponentInfoD0Ev @ 15 NONAME
	_ZN4Usif14CComponentInfoD1Ev @ 16 NONAME
	_ZN4Usif14CComponentInfoD2Ev @ 17 NONAME
	_ZN4Usif16TSecurityContextC1ERK9RMessage2 @ 18 NONAME
	_ZN4Usif16TSecurityContextC2ERK9RMessage2 @ 19 NONAME
	_ZN4Usif17CSifTransportTask10CancelImplEv @ 20 NONAME
	_ZN4Usif17CSifTransportTask10FileHandleEv @ 21 NONAME
	_ZN4Usif17CSifTransportTask13ComponentInfoEv @ 22 NONAME
	_ZN4Usif17CSifTransportTask13CustomResultsEv @ 23 NONAME
	_ZN4Usif17CSifTransportTask13RequestStatusEv @ 24 NONAME
	_ZN4Usif17CSifTransportTaskC2ERNS_20TTransportTaskParamsEi @ 25 NONAME
	_ZN4Usif17CSifTransportTaskD0Ev @ 26 NONAME
	_ZN4Usif17CSifTransportTaskD1Ev @ 27 NONAME
	_ZN4Usif17CSifTransportTaskD2Ev @ 28 NONAME
	_ZN4Usif18COpaqueNamedParams10AddStringLERK7TDesC16S3_ @ 29 NONAME
	_ZN4Usif18COpaqueNamedParams12AddIntArrayLERK7TDesC16RK6RArrayIiE @ 30 NONAME
	_ZN4Usif18COpaqueNamedParams12InternalizeLER11RReadStream @ 31 NONAME
	_ZN4Usif18COpaqueNamedParams15AddStringArrayLERK7TDesC16RK13RPointerArrayI7HBufC16E @ 32 NONAME
	_ZN4Usif18COpaqueNamedParams21PrepareResultsForIpcLER8TIpcArgsi @ 33 NONAME
	_ZN4Usif18COpaqueNamedParams4NewLEv @ 34 NONAME
	_ZN4Usif18COpaqueNamedParams5NewLCEv @ 35 NONAME
	_ZN4Usif18COpaqueNamedParams7AddIntLERK7TDesC16i @ 36 NONAME
	_ZN4Usif18COpaqueNamedParams7CleanupEv @ 37 NONAME
	_ZN4Usif18COpaqueNamedParamsD0Ev @ 38 NONAME
	_ZN4Usif18COpaqueNamedParamsD1Ev @ 39 NONAME
	_ZN4Usif18COpaqueNamedParamsD2Ev @ 40 NONAME
	_ZN4Usif19CSifTransportServer23NewSifTransportServerLCEv @ 41 NONAME
	_ZN4Usif19RSifTransportClient10DeactivateEiR14TRequestStatus @ 42 NONAME
	_ZN4Usif19RSifTransportClient15CancelOperationEv @ 43 NONAME
	_ZN4Usif19RSifTransportClient16GetComponentInfoER5RFileRNS_14CComponentInfoER14TRequestStatus @ 44 NONAME
	_ZN4Usif19RSifTransportClient16GetComponentInfoERK7TDesC16RNS_14CComponentInfoER14TRequestStatus @ 45 NONAME
	_ZN4Usif19RSifTransportClient5CloseEv @ 46 NONAME
	_ZN4Usif19RSifTransportClient7ConnectERK7TDesC16RK8TVersionS3_4TUid @ 47 NONAME
	_ZN4Usif19RSifTransportClient7InstallER5RFileR14TRequestStatusi @ 48 NONAME
	_ZN4Usif19RSifTransportClient7InstallER5RFileRKNS_18COpaqueNamedParamsERS3_R14TRequestStatusi @ 49 NONAME
	_ZN4Usif19RSifTransportClient7InstallERK7TDesC16R14TRequestStatusi @ 50 NONAME
	_ZN4Usif19RSifTransportClient7InstallERK7TDesC16RKNS_18COpaqueNamedParamsERS4_R14TRequestStatusi @ 51 NONAME
	_ZN4Usif19RSifTransportClient8ActivateEiR14TRequestStatus @ 52 NONAME
	_ZN4Usif19RSifTransportClient9UninstallEiR14TRequestStatusi @ 53 NONAME
	_ZN4Usif19RSifTransportClient9UninstallEiRKNS_18COpaqueNamedParamsERS1_R14TRequestStatusi @ 54 NONAME
	_ZN4Usif19RSifTransportClientC1Ev @ 55 NONAME
	_ZN4Usif19RSifTransportClientC2Ev @ 56 NONAME
	_ZN4Usif20StartTransportServerERK7TDesC16RK8TVersionPFPNS_17CSifTransportTaskENS_20TransportTaskFactory9TTaskTypeERNS_20TTransportTaskParamsEEi @ 57 NONAME
	_ZN4Usif20TTransportTaskParamsC1Ev @ 58 NONAME
	_ZN4Usif20TTransportTaskParamsC2Ev @ 59 NONAME
	_ZNK4Usif14CComponentInfo12ExternalizeLER12RWriteStream @ 60 NONAME
	_ZNK4Usif14CComponentInfo16CApplicationInfo12IconFileNameEv @ 61 NONAME
	_ZNK4Usif14CComponentInfo16CApplicationInfo4NameEv @ 62 NONAME
	_ZNK4Usif14CComponentInfo16CApplicationInfo6AppUidEv @ 63 NONAME
	_ZNK4Usif14CComponentInfo16CApplicationInfo9GroupNameEv @ 64 NONAME
	_ZNK4Usif14CComponentInfo5CNode10ScomoStateEv @ 65 NONAME
	_ZNK4Usif14CComponentInfo5CNode11ComponentIdEv @ 66 NONAME
	_ZNK4Usif14CComponentInfo5CNode12ApplicationsEv @ 67 NONAME
	_ZNK4Usif14CComponentInfo5CNode12AuthenticityEv @ 68 NONAME
	_ZNK4Usif14CComponentInfo5CNode13ComponentNameEv @ 69 NONAME
	_ZNK4Usif14CComponentInfo5CNode13HasExecutableEv @ 70 NONAME
	_ZNK4Usif14CComponentInfo5CNode13InstallStatusEv @ 71 NONAME
	_ZNK4Usif14CComponentInfo5CNode16MaxInstalledSizeEv @ 72 NONAME
	_ZNK4Usif14CComponentInfo5CNode16SoftwareTypeNameEv @ 73 NONAME
	_ZNK4Usif14CComponentInfo5CNode17GlobalComponentIdEv @ 74 NONAME
	_ZNK4Usif14CComponentInfo5CNode17UserGrantableCapsEv @ 75 NONAME
	_ZNK4Usif14CComponentInfo5CNode21DriveSeletionRequiredEv @ 76 NONAME
	_ZNK4Usif14CComponentInfo5CNode6VendorEv @ 77 NONAME
	_ZNK4Usif14CComponentInfo5CNode7VersionEv @ 78 NONAME
	_ZNK4Usif14CComponentInfo5CNode8ChildrenEv @ 79 NONAME
	_ZNK4Usif14CComponentInfo9RootNodeLEv @ 80 NONAME
	_ZNK4Usif16TSecurityContext13HasCapabilityE11TCapability @ 81 NONAME
	_ZNK4Usif16TSecurityContext14HasCapabilityLE11TCapability @ 82 NONAME
	_ZNK4Usif16TSecurityContext8SecureIdEv @ 83 NONAME
	_ZNK4Usif17CSifTransportTask11ComponentIdEv @ 84 NONAME
	_ZNK4Usif17CSifTransportTask15CustomArgumentsEv @ 85 NONAME
	_ZNK4Usif17CSifTransportTask15SecurityContextEv @ 86 NONAME
	_ZNK4Usif17CSifTransportTask8FileNameEv @ 87 NONAME
	_ZNK4Usif18COpaqueNamedParams10IntByNameLERK7TDesC16 @ 88 NONAME
	_ZNK4Usif18COpaqueNamedParams12ExternalizeLER12RWriteStream @ 89 NONAME
	_ZNK4Usif18COpaqueNamedParams13GetIntByNameLERK7TDesC16Ri @ 90 NONAME
	_ZNK4Usif18COpaqueNamedParams13StringByNameLERK7TDesC16 @ 91 NONAME
	_ZNK4Usif18COpaqueNamedParams15IntArrayByNameLERK7TDesC16 @ 92 NONAME
	_ZNK4Usif18COpaqueNamedParams18StringArrayByNameLERK7TDesC16 @ 93 NONAME
	_ZNK4Usif18COpaqueNamedParams23PrepareArgumentsForIpcLER8TIpcArgsi @ 94 NONAME
	_ZNK4Usif18COpaqueNamedParams6CountLEv @ 95 NONAME
	_ZNK4Usif18COpaqueNamedParams9GetNamesLER13RPointerArrayI7HBufC16E @ 96 NONAME
	_ZTIN4Usif11CStringItemE @ 97 NONAME
	_ZTIN4Usif12CIntegerItemE @ 98 NONAME
	_ZTIN4Usif14CComponentInfo16CApplicationInfoE @ 99 NONAME
	_ZTIN4Usif14CComponentInfo5CNodeE @ 100 NONAME
	_ZTIN4Usif14CComponentInfoE @ 101 NONAME
	_ZTIN4Usif16CStringArrayItemE @ 102 NONAME
	_ZTIN4Usif17CIntegerArrayItemE @ 103 NONAME
	_ZTIN4Usif17CSifTransportTaskE @ 104 NONAME
	_ZTIN4Usif19CSifTransportServerE @ 105 NONAME
	_ZTIN4Usif20CSifTransportRequestE @ 106 NONAME
	_ZTIN4Usif20CSifTransportSessionE @ 107 NONAME
	_ZTIN4Usif9CItemBaseE @ 108 NONAME
	_ZTVN4Usif11CStringItemE @ 109 NONAME
	_ZTVN4Usif12CIntegerItemE @ 110 NONAME
	_ZTVN4Usif14CComponentInfo16CApplicationInfoE @ 111 NONAME
	_ZTVN4Usif14CComponentInfo5CNodeE @ 112 NONAME
	_ZTVN4Usif14CComponentInfoE @ 113 NONAME
	_ZTVN4Usif16CStringArrayItemE @ 114 NONAME
	_ZTVN4Usif17CIntegerArrayItemE @ 115 NONAME
	_ZTVN4Usif17CSifTransportTaskE @ 116 NONAME
	_ZTVN4Usif19CSifTransportServerE @ 117 NONAME
	_ZTVN4Usif20CSifTransportRequestE @ 118 NONAME
	_ZTVN4Usif20CSifTransportSessionE @ 119 NONAME
	_ZTVN4Usif9CItemBaseE @ 120 NONAME

