EXPORTS	
	_ZN4Usif14CComponentInfo12SetRootNodeLEPNS0_5CNodeE @ 1 NONAME
	_ZN4Usif14CComponentInfo14PrepareForIpcLER8TIpcArgsi @ 2 NONAME
	_ZN4Usif14CComponentInfo16CApplicationInfo5NewLCERK4TUidRK7TDesC16S7_S7_ @ 3 NONAME
	_ZN4Usif14CComponentInfo16CApplicationInfoD0Ev @ 4 NONAME
	_ZN4Usif14CComponentInfo16CApplicationInfoD1Ev @ 5 NONAME
	_ZN4Usif14CComponentInfo16CApplicationInfoD2Ev @ 6 NONAME
	_ZN4Usif14CComponentInfo19SetRootNodeAsChildLERNS0_5CNodeE @ 7 NONAME
	_ZN4Usif14CComponentInfo4NewLEv @ 8 NONAME
	_ZN4Usif14CComponentInfo5CNode5NewLCERK7TDesC16S4_S4_S4_NS_11TScomoStateENS_14TInstallStatusEiS4_NS_13TAuthenticityERK14TCapabilitySetiiiP13RPointerArrayINS0_16CApplicationInfoEEPSB_IS1_E @ 9 NONAME
	_ZN4Usif14CComponentInfo5CNode9AddChildLEPS1_ @ 10 NONAME
	_ZN4Usif14CComponentInfo5CNodeD0Ev @ 11 NONAME
	_ZN4Usif14CComponentInfo5CNodeD1Ev @ 12 NONAME
	_ZN4Usif14CComponentInfo5CNodeD2Ev @ 13 NONAME
	_ZN4Usif14CComponentInfo5NewLCEv @ 14 NONAME
	_ZN4Usif14CComponentInfoD0Ev @ 15 NONAME
	_ZN4Usif14CComponentInfoD1Ev @ 16 NONAME
	_ZN4Usif14CComponentInfoD2Ev @ 17 NONAME
	_ZN4Usif16RSoftwareInstall10DeactivateEiR14TRequestStatus @ 18 NONAME
	_ZN4Usif16RSoftwareInstall15CancelOperationEv @ 19 NONAME
	_ZN4Usif16RSoftwareInstall16GetComponentInfoER5RFileRNS_14CComponentInfoER14TRequestStatus @ 20 NONAME
	_ZN4Usif16RSoftwareInstall16GetComponentInfoERK7TDesC16RNS_14CComponentInfoER14TRequestStatus @ 21 NONAME
	_ZN4Usif16RSoftwareInstall5CloseEv @ 22 NONAME
	_ZN4Usif16RSoftwareInstall7ConnectEv @ 23 NONAME
	_ZN4Usif16RSoftwareInstall7InstallER5RFileR14TRequestStatusi @ 24 NONAME
	_ZN4Usif16RSoftwareInstall7InstallER5RFileRKNS_18COpaqueNamedParamsERS3_R14TRequestStatusi @ 25 NONAME
	_ZN4Usif16RSoftwareInstall7InstallERK7TDesC16R14TRequestStatusi @ 26 NONAME
	_ZN4Usif16RSoftwareInstall7InstallERK7TDesC16RKNS_18COpaqueNamedParamsERS4_R14TRequestStatusi @ 27 NONAME
	_ZN4Usif16RSoftwareInstall8ActivateEiR14TRequestStatus @ 28 NONAME
	_ZN4Usif16RSoftwareInstall9UninstallEiR14TRequestStatusi @ 29 NONAME
	_ZN4Usif16RSoftwareInstall9UninstallEiRKNS_18COpaqueNamedParamsERS1_R14TRequestStatusi @ 30 NONAME
	_ZN4Usif16RSoftwareInstallC1Ev @ 31 NONAME
	_ZN4Usif16RSoftwareInstallC2Ev @ 32 NONAME
	_ZN4Usif16TSecurityContextC1ERK9RMessage2 @ 33 NONAME
	_ZN4Usif16TSecurityContextC2ERK9RMessage2 @ 34 NONAME
	_ZN4Usif18COpaqueNamedParams10AddStringLERK7TDesC16S3_ @ 35 NONAME
	_ZN4Usif18COpaqueNamedParams12AddIntArrayLERK7TDesC16RK6RArrayIiE @ 36 NONAME
	_ZN4Usif18COpaqueNamedParams12InternalizeLER11RReadStream @ 37 NONAME
	_ZN4Usif18COpaqueNamedParams15AddStringArrayLERK7TDesC16RK13RPointerArrayI7HBufC16E @ 38 NONAME
	_ZN4Usif18COpaqueNamedParams21PrepareResultsForIpcLER8TIpcArgsi @ 39 NONAME
	_ZN4Usif18COpaqueNamedParams4NewLEv @ 40 NONAME
	_ZN4Usif18COpaqueNamedParams5NewLCEv @ 41 NONAME
	_ZN4Usif18COpaqueNamedParams7AddIntLERK7TDesC16i @ 42 NONAME
	_ZN4Usif18COpaqueNamedParams7CleanupEv @ 43 NONAME
	_ZN4Usif18COpaqueNamedParamsD0Ev @ 44 NONAME
	_ZN4Usif18COpaqueNamedParamsD1Ev @ 45 NONAME
	_ZN4Usif18COpaqueNamedParamsD2Ev @ 46 NONAME
	_ZNK4Usif14CComponentInfo12ExternalizeLER12RWriteStream @ 47 NONAME
	_ZNK4Usif14CComponentInfo16CApplicationInfo12IconFileNameEv @ 48 NONAME
	_ZNK4Usif14CComponentInfo16CApplicationInfo4NameEv @ 49 NONAME
	_ZNK4Usif14CComponentInfo16CApplicationInfo6AppUidEv @ 50 NONAME
	_ZNK4Usif14CComponentInfo16CApplicationInfo9GroupNameEv @ 51 NONAME
	_ZNK4Usif14CComponentInfo5CNode10ScomoStateEv @ 52 NONAME
	_ZNK4Usif14CComponentInfo5CNode11ComponentIdEv @ 53 NONAME
	_ZNK4Usif14CComponentInfo5CNode12ApplicationsEv @ 54 NONAME
	_ZNK4Usif14CComponentInfo5CNode12AuthenticityEv @ 55 NONAME
	_ZNK4Usif14CComponentInfo5CNode13ComponentNameEv @ 56 NONAME
	_ZNK4Usif14CComponentInfo5CNode13HasExecutableEv @ 57 NONAME
	_ZNK4Usif14CComponentInfo5CNode13InstallStatusEv @ 58 NONAME
	_ZNK4Usif14CComponentInfo5CNode16MaxInstalledSizeEv @ 59 NONAME
	_ZNK4Usif14CComponentInfo5CNode16SoftwareTypeNameEv @ 60 NONAME
	_ZNK4Usif14CComponentInfo5CNode17GlobalComponentIdEv @ 61 NONAME
	_ZNK4Usif14CComponentInfo5CNode17UserGrantableCapsEv @ 62 NONAME
	_ZNK4Usif14CComponentInfo5CNode21DriveSeletionRequiredEv @ 63 NONAME
	_ZNK4Usif14CComponentInfo5CNode6VendorEv @ 64 NONAME
	_ZNK4Usif14CComponentInfo5CNode7VersionEv @ 65 NONAME
	_ZNK4Usif14CComponentInfo5CNode8ChildrenEv @ 66 NONAME
	_ZNK4Usif14CComponentInfo9RootNodeLEv @ 67 NONAME
	_ZNK4Usif16TSecurityContext13HasCapabilityE11TCapability @ 68 NONAME
	_ZNK4Usif16TSecurityContext14HasCapabilityLE11TCapability @ 69 NONAME
	_ZNK4Usif16TSecurityContext8SecureIdEv @ 70 NONAME
	_ZNK4Usif18COpaqueNamedParams10IntByNameLERK7TDesC16 @ 71 NONAME
	_ZNK4Usif18COpaqueNamedParams12ExternalizeLER12RWriteStream @ 72 NONAME
	_ZNK4Usif18COpaqueNamedParams13GetIntByNameLERK7TDesC16Ri @ 73 NONAME
	_ZNK4Usif18COpaqueNamedParams13StringByNameLERK7TDesC16 @ 74 NONAME
	_ZNK4Usif18COpaqueNamedParams15IntArrayByNameLERK7TDesC16 @ 75 NONAME
	_ZNK4Usif18COpaqueNamedParams18StringArrayByNameLERK7TDesC16 @ 76 NONAME
	_ZNK4Usif18COpaqueNamedParams23PrepareArgumentsForIpcLER8TIpcArgsi @ 77 NONAME
	_ZNK4Usif18COpaqueNamedParams6CountLEv @ 78 NONAME
	_ZNK4Usif18COpaqueNamedParams9GetNamesLER13RPointerArrayI7HBufC16E @ 79 NONAME
	_ZTIN4Usif11CStringItemE @ 80 NONAME
	_ZTIN4Usif12CIntegerItemE @ 81 NONAME
	_ZTIN4Usif14CComponentInfo16CApplicationInfoE @ 82 NONAME
	_ZTIN4Usif14CComponentInfo5CNodeE @ 83 NONAME
	_ZTIN4Usif14CComponentInfoE @ 84 NONAME
	_ZTIN4Usif16CStringArrayItemE @ 85 NONAME
	_ZTIN4Usif17CIntegerArrayItemE @ 86 NONAME
	_ZTIN4Usif9CItemBaseE @ 87 NONAME
	_ZTVN4Usif11CStringItemE @ 88 NONAME
	_ZTVN4Usif12CIntegerItemE @ 89 NONAME
	_ZTVN4Usif14CComponentInfo16CApplicationInfoE @ 90 NONAME
	_ZTVN4Usif14CComponentInfo5CNodeE @ 91 NONAME
	_ZTVN4Usif14CComponentInfoE @ 92 NONAME
	_ZTVN4Usif16CStringArrayItemE @ 93 NONAME
	_ZTVN4Usif17CIntegerArrayItemE @ 94 NONAME
	_ZTVN4Usif9CItemBaseE @ 95 NONAME

