EXPORTS
	??0CIAUpdateXmlParser@@IAE@PAVCIAUpdateXmlSubParser@@@Z @ 1 NONAME ; CIAUpdateXmlParser::CIAUpdateXmlParser(class CIAUpdateXmlSubParser *)
	??0CIAUpdateXmlSubParser@@IAE@XZ @ 2 NONAME ; CIAUpdateXmlSubParser::CIAUpdateXmlSubParser(void)
	??1CIAUpdateControllerFile@@UAE@XZ @ 3 NONAME ; CIAUpdateControllerFile::~CIAUpdateControllerFile(void)
	??1CIAUpdatePendingNodesFile@@UAE@XZ @ 4 NONAME ; CIAUpdatePendingNodesFile::~CIAUpdatePendingNodesFile(void)
	??1CIAUpdateRestartInfo@@UAE@XZ @ 5 NONAME ; CIAUpdateRestartInfo::~CIAUpdateRestartInfo(void)
	??1CIAUpdateXmlParser@@UAE@XZ @ 6 NONAME ; CIAUpdateXmlParser::~CIAUpdateXmlParser(void)
	??1CIAUpdateXmlSubParser@@UAE@XZ @ 7 NONAME ; CIAUpdateXmlSubParser::~CIAUpdateXmlSubParser(void)
	?AcceptData@CIAUpdateXmlSubParser@@IBEHXZ @ 8 NONAME ; int CIAUpdateXmlSubParser::AcceptData(void) const
	?AppPackageUidL@IAUpdateUtils@@YA?AVTUid@@ABV2@@Z @ 9 NONAME ; class TUid IAUpdateUtils::AppPackageUidL(class TUid const &)
	?AppPackageUidL@IAUpdateUtils@@YA?AVTUid@@ABV2@AAVTIAUpdateVersion@@@Z @ 10 NONAME ; class TUid IAUpdateUtils::AppPackageUidL(class TUid const &, class TIAUpdateVersion &)
	?ConstructL@CIAUpdateXmlParser@@MAEXXZ @ 11 NONAME ; void CIAUpdateXmlParser::ConstructL(void)
	?ConstructL@CIAUpdateXmlSubParser@@MAEXABVTDesC8@@@Z @ 12 NONAME ; void CIAUpdateXmlSubParser::ConstructL(class TDesC8 const &)
	?CreateControllerL@IAUpdateFactory@@YAPAVMIAUpdateController@@ABVTUid@@AAVMIAUpdateControllerObserver@@@Z @ 13 NONAME ; class MIAUpdateController * IAUpdateFactory::CreateControllerL(class TUid const &, class MIAUpdateControllerObserver &)
	?CurrentSubParser@CIAUpdateXmlSubParser@@IBEPAV1@XZ @ 14 NONAME ; class CIAUpdateXmlSubParser * CIAUpdateXmlSubParser::CurrentSubParser(void) const
	?DeleteFiles@CIAUpdateRestartInfo@@QAEXXZ @ 15 NONAME ; void CIAUpdateRestartInfo::DeleteFiles(void)
	?DesHexToIntL@IAUpdateUtils@@YAHABVTDesC16@@@Z @ 16 NONAME ; int IAUpdateUtils::DesHexToIntL(class TDesC16 const &)
	?DesToVersionL@IAUpdateUtils@@YAXABVTDesC16@@AAC1AAF@Z @ 17 NONAME ; void IAUpdateUtils::DesToVersionL(class TDesC16 const &, signed char &, signed char &, short &)
	?ElementTagInfoEquals@CIAUpdateXmlSubParser@@IBEHABVRTagInfo@Xml@@@Z @ 18 NONAME ; int CIAUpdateXmlSubParser::ElementTagInfoEquals(class Xml::RTagInfo const &) const
	?FilePath@CIAUpdatePendingNodesFile@@QBEABVTDesC16@@XZ @ 19 NONAME ; class TDesC16 const & CIAUpdatePendingNodesFile::FilePath(void) const
	?GetExtendedInterface@CIAUpdateXmlSubParser@@UAEPAXJ@Z @ 20 NONAME ; void * CIAUpdateXmlSubParser::GetExtendedInterface(long)
	?Index@CIAUpdatePendingNodesFile@@QBEHXZ @ 21 NONAME ; int CIAUpdatePendingNodesFile::Index(void) const
	?IsAppInstalledL@IAUpdateUtils@@YAHABVTUid@@@Z @ 22 NONAME ; int IAUpdateUtils::IsAppInstalledL(class TUid const &)
	?IsAppInstalledL@IAUpdateUtils@@YAHABVTUid@@AAVTIAUpdateVersion@@@Z @ 23 NONAME ; int IAUpdateUtils::IsAppInstalledL(class TUid const &, class TIAUpdateVersion &)
	?IsElementEnded@CIAUpdateXmlSubParser@@IBEHXZ @ 24 NONAME ; int CIAUpdateXmlSubParser::IsElementEnded(void) const
	?IsElementStarted@CIAUpdateXmlSubParser@@IBEHXZ @ 25 NONAME ; int CIAUpdateXmlSubParser::IsElementStarted(void) const
	?IsInstalledL@IAUpdateUtils@@YAHABVTUid@@ABVTDesC16@@@Z @ 26 NONAME ; int IAUpdateUtils::IsInstalledL(class TUid const &, class TDesC16 const &)
	?Language@CIAUpdateControllerFile@@QBE?AW4TLanguage@@XZ @ 27 NONAME ; enum TLanguage CIAUpdateControllerFile::Language(void) const
	?LocalName@CIAUpdateXmlSubParser@@IBEABVTDesC8@@XZ @ 28 NONAME ; class TDesC8 const & CIAUpdateXmlSubParser::LocalName(void) const
	?NewL@CIAUpdateControllerFile@@SAPAV1@ABVTDesC16@@@Z @ 29 NONAME ; class CIAUpdateControllerFile * CIAUpdateControllerFile::NewL(class TDesC16 const &)
	?NewL@CIAUpdateNetworkRegistration@@SAPAV1@AAVMIAUpdateNetworkRegistrationObserver@@@Z @ 30 NONAME ; class CIAUpdateNetworkRegistration * CIAUpdateNetworkRegistration::NewL(class MIAUpdateNetworkRegistrationObserver &)
	?NewL@CIAUpdatePendingNodesFile@@SAPAV1@XZ @ 31 NONAME ; class CIAUpdatePendingNodesFile * CIAUpdatePendingNodesFile::NewL(void)
	?NewL@CIAUpdateRestartInfo@@SAPAV1@XZ @ 32 NONAME ; class CIAUpdateRestartInfo * CIAUpdateRestartInfo::NewL(void)
	?NewL@CIAUpdateXmlParser@@SAPAV1@PAVCIAUpdateXmlSubParser@@@Z @ 33 NONAME ; class CIAUpdateXmlParser * CIAUpdateXmlParser::NewL(class CIAUpdateXmlSubParser *)
	?NewLC@CIAUpdateControllerFile@@SAPAV1@ABVTDesC16@@@Z @ 34 NONAME ; class CIAUpdateControllerFile * CIAUpdateControllerFile::NewLC(class TDesC16 const &)
	?NewLC@CIAUpdatePendingNodesFile@@SAPAV1@XZ @ 35 NONAME ; class CIAUpdatePendingNodesFile * CIAUpdatePendingNodesFile::NewLC(void)
	?NewLC@CIAUpdateRestartInfo@@SAPAV1@XZ @ 36 NONAME ; class CIAUpdateRestartInfo * CIAUpdateRestartInfo::NewLC(void)
	?NewLC@CIAUpdateXmlParser@@SAPAV1@PAVCIAUpdateXmlSubParser@@@Z @ 37 NONAME ; class CIAUpdateXmlParser * CIAUpdateXmlParser::NewLC(class CIAUpdateXmlSubParser *)
	?OnContentL@CIAUpdateXmlSubParser@@UAEXABVTDesC8@@H@Z @ 38 NONAME ; void CIAUpdateXmlSubParser::OnContentL(class TDesC8 const &, int)
	?OnEndDocumentL@CIAUpdateXmlSubParser@@UAEXH@Z @ 39 NONAME ; void CIAUpdateXmlSubParser::OnEndDocumentL(int)
	?OnEndElementL@CIAUpdateXmlSubParser@@UAEXABVRTagInfo@Xml@@H@Z @ 40 NONAME ; void CIAUpdateXmlSubParser::OnEndElementL(class Xml::RTagInfo const &, int)
	?OnEndPrefixMappingL@CIAUpdateXmlSubParser@@UAEXABVRString@@H@Z @ 41 NONAME ; void CIAUpdateXmlSubParser::OnEndPrefixMappingL(class RString const &, int)
	?OnError@CIAUpdateXmlSubParser@@UAEXH@Z @ 42 NONAME ; void CIAUpdateXmlSubParser::OnError(int)
	?OnIgnorableWhiteSpaceL@CIAUpdateXmlSubParser@@UAEXABVTDesC8@@H@Z @ 43 NONAME ; void CIAUpdateXmlSubParser::OnIgnorableWhiteSpaceL(class TDesC8 const &, int)
	?OnProcessingInstructionL@CIAUpdateXmlSubParser@@UAEXABVTDesC8@@0H@Z @ 44 NONAME ; void CIAUpdateXmlSubParser::OnProcessingInstructionL(class TDesC8 const &, class TDesC8 const &, int)
	?OnSkippedEntityL@CIAUpdateXmlSubParser@@UAEXABVRString@@H@Z @ 45 NONAME ; void CIAUpdateXmlSubParser::OnSkippedEntityL(class RString const &, int)
	?OnStartDocumentL@CIAUpdateXmlSubParser@@UAEXABVRDocumentParameters@Xml@@H@Z @ 46 NONAME ; void CIAUpdateXmlSubParser::OnStartDocumentL(class Xml::RDocumentParameters const &, int)
	?OnStartElementL@CIAUpdateXmlSubParser@@UAEXABVRTagInfo@Xml@@ABV?$RArray@VRAttribute@Xml@@@@H@Z @ 47 NONAME ; void CIAUpdateXmlSubParser::OnStartElementL(class Xml::RTagInfo const &, class RArray<class Xml::RAttribute> const &, int)
	?OnStartPrefixMappingL@CIAUpdateXmlSubParser@@UAEXABVRString@@0H@Z @ 48 NONAME ; void CIAUpdateXmlSubParser::OnStartPrefixMappingL(class RString const &, class RString const &, int)
	?ParseFileL@CIAUpdateXmlParser@@QAEXABVTDesC16@@@Z @ 49 NONAME ; void CIAUpdateXmlParser::ParseFileL(class TDesC16 const &)
	?ParseL@CIAUpdateXmlParser@@QAEXABVTDesC16@@@Z @ 50 NONAME ; void CIAUpdateXmlParser::ParseL(class TDesC16 const &)
	?ParseL@CIAUpdateXmlParser@@QAEXABVTDesC8@@@Z @ 51 NONAME ; void CIAUpdateXmlParser::ParseL(class TDesC8 const &)
	?ParsePrivateFileL@CIAUpdateXmlParser@@QAEXABVTDesC16@@@Z @ 52 NONAME ; void CIAUpdateXmlParser::ParsePrivateFileL(class TDesC16 const &)
	?PendingNodes@CIAUpdatePendingNodesFile@@QAEAAV?$RPointerArray@VCIAUpdaterIdentifier@@@@XZ @ 53 NONAME ; class RPointerArray<class CIAUpdaterIdentifier> & CIAUpdatePendingNodesFile::PendingNodes(void)
	?PendingNodesFile@CIAUpdateRestartInfo@@QAEAAVCIAUpdatePendingNodesFile@@XZ @ 54 NONAME ; class CIAUpdatePendingNodesFile & CIAUpdateRestartInfo::PendingNodesFile(void)
	?ReadControllerDataL@CIAUpdateControllerFile@@QAEHXZ @ 55 NONAME ; int CIAUpdateControllerFile::ReadControllerDataL(void)
	?ReadDataL@CIAUpdatePendingNodesFile@@QAEHXZ @ 56 NONAME ; int CIAUpdatePendingNodesFile::ReadDataL(void)
	?RefreshTime@CIAUpdateControllerFile@@QBEABVTTime@@XZ @ 57 NONAME ; class TTime const & CIAUpdateControllerFile::RefreshTime(void) const
	?RemoveFile@CIAUpdatePendingNodesFile@@QAEHXZ @ 58 NONAME ; int CIAUpdatePendingNodesFile::RemoveFile(void)
	?Reset@CIAUpdatePendingNodesFile@@QAEXXZ @ 59 NONAME ; void CIAUpdatePendingNodesFile::Reset(void)
	?ResultsFile@CIAUpdateRestartInfo@@QAEAAVCIAUpdaterResultsFile@@XZ @ 60 NONAME ; class CIAUpdaterResultsFile & CIAUpdateRestartInfo::ResultsFile(void)
	?SetCurrentData@CIAUpdateControllerFile@@QAEXXZ @ 61 NONAME ; void CIAUpdateControllerFile::SetCurrentData(void)
	?SetCurrentLanguage@CIAUpdateControllerFile@@QAEXXZ @ 62 NONAME ; void CIAUpdateControllerFile::SetCurrentLanguage(void)
	?SetCurrentRefreshTime@CIAUpdateControllerFile@@QAEXXZ @ 63 NONAME ; void CIAUpdateControllerFile::SetCurrentRefreshTime(void)
	?SetFilePathL@CIAUpdatePendingNodesFile@@QAEXABVTDesC16@@@Z @ 64 NONAME ; void CIAUpdatePendingNodesFile::SetFilePathL(class TDesC16 const &)
	?SetIndex@CIAUpdatePendingNodesFile@@QAEXH@Z @ 65 NONAME ; void CIAUpdatePendingNodesFile::SetIndex(int)
	?SetLanguage@CIAUpdateControllerFile@@QAEXW4TLanguage@@@Z @ 66 NONAME ; void CIAUpdateControllerFile::SetLanguage(enum TLanguage)
	?SetRefreshTime@CIAUpdateControllerFile@@QAEXABVTTime@@@Z @ 67 NONAME ; void CIAUpdateControllerFile::SetRefreshTime(class TTime const &)
	?SetRefreshTime@CIAUpdateControllerFile@@QAEX_J@Z @ 68 NONAME ; void CIAUpdateControllerFile::SetRefreshTime(long long)
	?SilentInstallOptionsL@IAUpdateUtils@@YA?AVTInstallOptions@SwiUI@@ABVTUid@@H@Z @ 69 NONAME ; class SwiUI::TInstallOptions IAUpdateUtils::SilentInstallOptionsL(class TUid const &, int)
	?SpaceAvailableInInternalDrivesL@IAUpdateUtils@@YAHAAV?$RPointerArray@VMIAUpdateNode@@@@@Z @ 70 NONAME ; int IAUpdateUtils::SpaceAvailableInInternalDrivesL(class RPointerArray<class MIAUpdateNode> &)
	?StartMonitoringL@CIAUpdateNetworkRegistration@@QAEXXZ @ 71 NONAME ; void CIAUpdateNetworkRegistration::StartMonitoringL(void)
	?SubParser@CIAUpdateXmlParser@@IAEAAVCIAUpdateXmlSubParser@@XZ @ 72 NONAME ; class CIAUpdateXmlSubParser & CIAUpdateXmlParser::SubParser(void)
	?SubParsers@CIAUpdateXmlSubParser@@IAEAAV?$RPointerArray@VCIAUpdateXmlSubParser@@@@XZ @ 73 NONAME ; class RPointerArray<class CIAUpdateXmlSubParser> & CIAUpdateXmlSubParser::SubParsers(void)
	?UnknownElementCounter@CIAUpdateXmlSubParser@@IBEHXZ @ 74 NONAME ; int CIAUpdateXmlSubParser::UnknownElementCounter(void) const
	?WriteControllerDataL@CIAUpdateControllerFile@@QAEXXZ @ 75 NONAME ; void CIAUpdateControllerFile::WriteControllerDataL(void)
	?WriteDataL@CIAUpdatePendingNodesFile@@QAEXXZ @ 76 NONAME ; void CIAUpdatePendingNodesFile::WriteDataL(void)
	??0TIAUpdateVersion@@QAE@ABVTVersion@@@Z @ 77 NONAME ; TIAUpdateVersion::TIAUpdateVersion(class TVersion const &)
	??0TIAUpdateVersion@@QAE@XZ @ 78 NONAME ; TIAUpdateVersion::TIAUpdateVersion(void)
	??4TIAUpdateVersion@@QAEABV0@ABVTVersion@@@Z @ 79 NONAME ; class TIAUpdateVersion const & TIAUpdateVersion::operator=(class TVersion const &)
	??8TIAUpdateVersion@@QBEHABV0@@Z @ 80 NONAME ; int TIAUpdateVersion::operator==(class TIAUpdateVersion const &) const
	??9TIAUpdateVersion@@QBEHABV0@@Z @ 81 NONAME ; int TIAUpdateVersion::operator!=(class TIAUpdateVersion const &) const
	??MTIAUpdateVersion@@QBEHABV0@@Z @ 82 NONAME ; int TIAUpdateVersion::operator<(class TIAUpdateVersion const &) const
	??NTIAUpdateVersion@@QBEHABV0@@Z @ 83 NONAME ; int TIAUpdateVersion::operator<=(class TIAUpdateVersion const &) const
	??OTIAUpdateVersion@@QBEHABV0@@Z @ 84 NONAME ; int TIAUpdateVersion::operator>(class TIAUpdateVersion const &) const
	??PTIAUpdateVersion@@QBEHABV0@@Z @ 85 NONAME ; int TIAUpdateVersion::operator>=(class TIAUpdateVersion const &) const
	?InternalizeL@TIAUpdateVersion@@QAEXABVTDesC16@@@Z @ 86 NONAME ; void TIAUpdateVersion::InternalizeL(class TDesC16 const &)
	?SetToFloor@TIAUpdateVersion@@QAEXXZ @ 87 NONAME ; void TIAUpdateVersion::SetToFloor(void)
	?SetToRoof@TIAUpdateVersion@@QAEXXZ @ 88 NONAME ; void TIAUpdateVersion::SetToRoof(void)
	?IsWidgetInstalledL@IAUpdateUtils@@YAHABVTDesC16@@AAVTIAUpdateVersion@@@Z @ 89 NONAME ; int IAUpdateUtils::IsWidgetInstalledL(class TDesC16 const &, class TIAUpdateVersion &)

