EXPORTS
	_ZN13IAUpdateUtils12DesHexToIntLERK7TDesC16 @ 1 NONAME
	_ZN13IAUpdateUtils12IsInstalledLERK4TUidRK7TDesC16 @ 2 NONAME
	_ZN13IAUpdateUtils13DesToVersionLERK7TDesC16RaS3_Rs @ 3 NONAME
	_ZN13IAUpdateUtils14AppPackageUidLERK4TUid @ 4 NONAME
	_ZN13IAUpdateUtils14AppPackageUidLERK4TUidR16TIAUpdateVersion @ 5 NONAME
	_ZN13IAUpdateUtils15IsAppInstalledLERK4TUid @ 6 NONAME
	_ZN13IAUpdateUtils15IsAppInstalledLERK4TUidR16TIAUpdateVersion @ 7 NONAME
	_ZN13IAUpdateUtils18IsWidgetInstalledLERK7TDesC16R16TIAUpdateVersion @ 8 NONAME
	_ZN13IAUpdateUtils31SpaceAvailableInInternalDrivesLER13RPointerArrayI13MIAUpdateNodeE @ 9 NONAME
	_ZN15IAUpdateFactory17CreateControllerLERK4TUidR27MIAUpdateControllerObserver @ 10 NONAME
	_ZN16TIAUpdateVersion10SetToFloorEv @ 11 NONAME
	_ZN16TIAUpdateVersion12InternalizeLERK7TDesC16 @ 12 NONAME
	_ZN16TIAUpdateVersion9SetToRoofEv @ 13 NONAME
	_ZN16TIAUpdateVersionC1ERK8TVersion @ 14 NONAME
	_ZN16TIAUpdateVersionC1Ev @ 15 NONAME
	_ZN16TIAUpdateVersionC2ERK8TVersion @ 16 NONAME
	_ZN16TIAUpdateVersionC2Ev @ 17 NONAME
	_ZN16TIAUpdateVersionaSERK8TVersion @ 18 NONAME
	_ZN18CIAUpdateXmlParser10ConstructLEv @ 19 NONAME
	_ZN18CIAUpdateXmlParser10ParseFileLERK7TDesC16 @ 20 NONAME
	_ZN18CIAUpdateXmlParser17ParsePrivateFileLERK7TDesC16 @ 21 NONAME
	_ZN18CIAUpdateXmlParser4NewLEP21CIAUpdateXmlSubParser @ 22 NONAME
	_ZN18CIAUpdateXmlParser5NewLCEP21CIAUpdateXmlSubParser @ 23 NONAME
	_ZN18CIAUpdateXmlParser6ParseLERK6TDesC8 @ 24 NONAME
	_ZN18CIAUpdateXmlParser6ParseLERK7TDesC16 @ 25 NONAME
	_ZN18CIAUpdateXmlParser9SubParserEv @ 26 NONAME
	_ZN18CIAUpdateXmlParserC1EP21CIAUpdateXmlSubParser @ 27 NONAME
	_ZN18CIAUpdateXmlParserC2EP21CIAUpdateXmlSubParser @ 28 NONAME
	_ZN18CIAUpdateXmlParserD0Ev @ 29 NONAME
	_ZN18CIAUpdateXmlParserD1Ev @ 30 NONAME
	_ZN18CIAUpdateXmlParserD2Ev @ 31 NONAME
	_ZN20CIAUpdateRestartInfo11DeleteFilesEv @ 32 NONAME
	_ZN20CIAUpdateRestartInfo11ResultsFileEv @ 33 NONAME
	_ZN20CIAUpdateRestartInfo16PendingNodesFileEv @ 34 NONAME
	_ZN20CIAUpdateRestartInfo4NewLEv @ 35 NONAME
	_ZN20CIAUpdateRestartInfo5NewLCEv @ 36 NONAME
	_ZN20CIAUpdateRestartInfoD0Ev @ 37 NONAME
	_ZN20CIAUpdateRestartInfoD1Ev @ 38 NONAME
	_ZN20CIAUpdateRestartInfoD2Ev @ 39 NONAME
	_ZN21CIAUpdateXmlSubParser10ConstructLERK6TDesC8 @ 40 NONAME
	_ZN21CIAUpdateXmlSubParser10OnContentLERK6TDesC8i @ 41 NONAME
	_ZN21CIAUpdateXmlSubParser10SubParsersEv @ 42 NONAME
	_ZN21CIAUpdateXmlSubParser13OnEndElementLERKN3Xml8RTagInfoEi @ 43 NONAME
	_ZN21CIAUpdateXmlSubParser14OnEndDocumentLEi @ 44 NONAME
	_ZN21CIAUpdateXmlSubParser15OnStartElementLERKN3Xml8RTagInfoERK6RArrayINS0_10RAttributeEEi @ 45 NONAME
	_ZN21CIAUpdateXmlSubParser16OnSkippedEntityLERK7RStringi @ 46 NONAME
	_ZN21CIAUpdateXmlSubParser16OnStartDocumentLERKN3Xml19RDocumentParametersEi @ 47 NONAME
	_ZN21CIAUpdateXmlSubParser19OnEndPrefixMappingLERK7RStringi @ 48 NONAME
	_ZN21CIAUpdateXmlSubParser20GetExtendedInterfaceEl @ 49 NONAME
	_ZN21CIAUpdateXmlSubParser21OnStartPrefixMappingLERK7RStringS2_i @ 50 NONAME
	_ZN21CIAUpdateXmlSubParser22OnIgnorableWhiteSpaceLERK6TDesC8i @ 51 NONAME
	_ZN21CIAUpdateXmlSubParser24OnProcessingInstructionLERK6TDesC8S2_i @ 52 NONAME
	_ZN21CIAUpdateXmlSubParser7OnErrorEi @ 53 NONAME
	_ZN21CIAUpdateXmlSubParserC1Ev @ 54 NONAME
	_ZN21CIAUpdateXmlSubParserC2Ev @ 55 NONAME
	_ZN21CIAUpdateXmlSubParserD0Ev @ 56 NONAME
	_ZN21CIAUpdateXmlSubParserD1Ev @ 57 NONAME
	_ZN21CIAUpdateXmlSubParserD2Ev @ 58 NONAME
	_ZN23CIAUpdateControllerFile11SetLanguageE9TLanguage @ 59 NONAME
	_ZN23CIAUpdateControllerFile14SetCurrentDataEv @ 60 NONAME
	_ZN23CIAUpdateControllerFile14SetRefreshTimeERK5TTime @ 61 NONAME
	_ZN23CIAUpdateControllerFile14SetRefreshTimeEx @ 62 NONAME
	_ZN23CIAUpdateControllerFile18SetCurrentLanguageEv @ 63 NONAME
	_ZN23CIAUpdateControllerFile19ReadControllerDataLEv @ 64 NONAME
	_ZN23CIAUpdateControllerFile20WriteControllerDataLEv @ 65 NONAME
	_ZN23CIAUpdateControllerFile21SetCurrentRefreshTimeEv @ 66 NONAME
	_ZN23CIAUpdateControllerFile4NewLERK7TDesC16 @ 67 NONAME
	_ZN23CIAUpdateControllerFile5NewLCERK7TDesC16 @ 68 NONAME
	_ZN23CIAUpdateControllerFileD0Ev @ 69 NONAME
	_ZN23CIAUpdateControllerFileD1Ev @ 70 NONAME
	_ZN23CIAUpdateControllerFileD2Ev @ 71 NONAME
	_ZN25CIAUpdatePendingNodesFile10RemoveFileEv @ 72 NONAME
	_ZN25CIAUpdatePendingNodesFile10WriteDataLEv @ 73 NONAME
	_ZN25CIAUpdatePendingNodesFile12PendingNodesEv @ 74 NONAME
	_ZN25CIAUpdatePendingNodesFile12SetFilePathLERK7TDesC16 @ 75 NONAME
	_ZN25CIAUpdatePendingNodesFile4NewLEv @ 76 NONAME
	_ZN25CIAUpdatePendingNodesFile5NewLCEv @ 77 NONAME
	_ZN25CIAUpdatePendingNodesFile5ResetEv @ 78 NONAME
	_ZN25CIAUpdatePendingNodesFile8SetIndexEi @ 79 NONAME
	_ZN25CIAUpdatePendingNodesFile9ReadDataLEv @ 80 NONAME
	_ZN25CIAUpdatePendingNodesFileD0Ev @ 81 NONAME
	_ZN25CIAUpdatePendingNodesFileD1Ev @ 82 NONAME
	_ZN25CIAUpdatePendingNodesFileD2Ev @ 83 NONAME
	_ZN28CIAUpdateNetworkRegistration16StartMonitoringLEv @ 84 NONAME
	_ZN28CIAUpdateNetworkRegistration4NewLER36MIAUpdateNetworkRegistrationObserver @ 85 NONAME
	_ZNK16TIAUpdateVersioneqERKS_ @ 86 NONAME
	_ZNK16TIAUpdateVersiongeERKS_ @ 87 NONAME
	_ZNK16TIAUpdateVersiongtERKS_ @ 88 NONAME
	_ZNK16TIAUpdateVersionleERKS_ @ 89 NONAME
	_ZNK16TIAUpdateVersionltERKS_ @ 90 NONAME
	_ZNK16TIAUpdateVersionneERKS_ @ 91 NONAME
	_ZNK21CIAUpdateXmlSubParser10AcceptDataEv @ 92 NONAME
	_ZNK21CIAUpdateXmlSubParser14IsElementEndedEv @ 93 NONAME
	_ZNK21CIAUpdateXmlSubParser16CurrentSubParserEv @ 94 NONAME
	_ZNK21CIAUpdateXmlSubParser16IsElementStartedEv @ 95 NONAME
	_ZNK21CIAUpdateXmlSubParser20ElementTagInfoEqualsERKN3Xml8RTagInfoE @ 96 NONAME
	_ZNK21CIAUpdateXmlSubParser21UnknownElementCounterEv @ 97 NONAME
	_ZNK21CIAUpdateXmlSubParser9LocalNameEv @ 98 NONAME
	_ZNK23CIAUpdateControllerFile11RefreshTimeEv @ 99 NONAME
	_ZNK23CIAUpdateControllerFile8LanguageEv @ 100 NONAME
	_ZNK25CIAUpdatePendingNodesFile5IndexEv @ 101 NONAME
	_ZNK25CIAUpdatePendingNodesFile8FilePathEv @ 102 NONAME
	_ZTI13CIAUpdateNode @ 103 NONAME
	_ZTI14CIAUpdateTimer @ 104 NONAME
	_ZTI15CIAUpdateFwNode @ 105 NONAME
	_ZTI15CIAUpdateLoader @ 106 NONAME
	_ZTI16CIAUpdateHistory @ 107 NONAME
	_ZTI17CIAUpdateBaseNode @ 108 NONAME
	_ZTI18CIAUpdateXmlParser @ 109 NONAME
	_ZTI19CIAUpdateController @ 110 NONAME
	_ZTI19CIAUpdateRendezvous @ 111 NONAME
	_ZTI20CIAUpdateHistoryItem @ 112 NONAME
	_ZTI20CIAUpdateNodeDetails @ 113 NONAME
	_ZTI20CIAUpdateRestartInfo @ 114 NONAME
	_ZTI20CIAUpdateSpecialNode @ 115 NONAME
	_ZTI21CIAUpdateCacheCleaner @ 116 NONAME
	_ZTI21CIAUpdateXmlSubParser @ 117 NONAME
	_ZTI22CIAUpdateNodeContainer @ 118 NONAME
	_ZTI23CIAUpdateControllerFile @ 119 NONAME
	_ZTI23CIAUpdateNodeDependency @ 120 NONAME
	_ZTI24CIAUpdateEngineXmlParser @ 121 NONAME
	_ZTI24CIAUpdateSelfUpdaterCtrl @ 122 NONAME
	_ZTI24CIAUpdateServicePackNode @ 123 NONAME
	_ZTI25CIAUpdateContentOperation @ 124 NONAME
	_ZTI25CIAUpdateEngineConfigData @ 125 NONAME
	_ZTI25CIAUpdateInstallOperation @ 126 NONAME
	_ZTI25CIAUpdateNodeUidXmlParser @ 127 NONAME
	_ZTI25CIAUpdatePendingNodesFile @ 128 NONAME
	_ZTI26CIAUpdateDownloadOperation @ 129 NONAME
	_ZTI26CIAUpdateInterDepXmlParser @ 130 NONAME
	_ZTI26CIAUpdatePurchaseOperation @ 131 NONAME
	_ZTI27CIAUpdateEngineXmlSubParser @ 132 NONAME
	_ZTI27CIAUpdatePlatformDependency @ 133 NONAME
	_ZTI28CIAUpdateDependencyXmlParser @ 134 NONAME
	_ZTI28CIAUpdateFwPurchaseOperation @ 135 NONAME
	_ZTI28CIAUpdateNetworkRegistration @ 136 NONAME
	_ZTI29CIAUpdateNodeVersionXmlParser @ 137 NONAME
	_ZTI30CIAUpdateNodeEmbeddedXmlParser @ 138 NONAME
	_ZTI30CIAUpdateVersionBuildXmlParser @ 139 NONAME
	_ZTI30CIAUpdateVersionMajorXmlParser @ 140 NONAME
	_ZTI30CIAUpdateVersionMinorXmlParser @ 141 NONAME
	_ZTI31CIAUpdateDependencyXmlSubParser @ 142 NONAME
	_ZTI31CIAUpdateNormalContentOperation @ 143 NONAME
	_ZTI31CIAUpdateSelfUpdaterInitializer @ 144 NONAME
	_ZTI32CIAUpdateContentOperationManager @ 145 NONAME
	_ZTI32CIAUpdateNodeDependencyXmlParser @ 146 NONAME
	_ZTI32CIAUpdateSelfUpdateInitOperation @ 147 NONAME
	_ZTI33CIAUpdateNodeVersionRoofXmlParser @ 148 NONAME
	_ZTI33CIAUpdatePlatformVersionXmlParser @ 149 NONAME
	_ZTI34CIAUpdateNodeVersionFloorXmlParser @ 150 NONAME
	_ZTI36CIAUpdatePlatformDependencyXmlParser @ 151 NONAME
	_ZTI37CIAUpdatePlatformDescriptionXmlParser @ 152 NONAME
	_ZTI37CIAUpdatePlatformVersionRoofXmlParser @ 153 NONAME
	_ZTI38CIAUpdatePlatformVersionFloorXmlParser @ 154 NONAME
	_ZTV13CIAUpdateNode @ 155 NONAME
	_ZTV14CIAUpdateTimer @ 156 NONAME
	_ZTV15CIAUpdateFwNode @ 157 NONAME
	_ZTV15CIAUpdateLoader @ 158 NONAME
	_ZTV16CIAUpdateHistory @ 159 NONAME
	_ZTV17CIAUpdateBaseNode @ 160 NONAME
	_ZTV18CIAUpdateXmlParser @ 161 NONAME
	_ZTV19CIAUpdateController @ 162 NONAME
	_ZTV19CIAUpdateRendezvous @ 163 NONAME
	_ZTV20CIAUpdateHistoryItem @ 164 NONAME
	_ZTV20CIAUpdateNodeDetails @ 165 NONAME
	_ZTV20CIAUpdateRestartInfo @ 166 NONAME
	_ZTV20CIAUpdateSpecialNode @ 167 NONAME
	_ZTV21CIAUpdateCacheCleaner @ 168 NONAME
	_ZTV21CIAUpdateXmlSubParser @ 169 NONAME
	_ZTV22CIAUpdateNodeContainer @ 170 NONAME
	_ZTV23CIAUpdateControllerFile @ 171 NONAME
	_ZTV23CIAUpdateNodeDependency @ 172 NONAME
	_ZTV24CIAUpdateEngineXmlParser @ 173 NONAME
	_ZTV24CIAUpdateSelfUpdaterCtrl @ 174 NONAME
	_ZTV24CIAUpdateServicePackNode @ 175 NONAME
	_ZTV25CIAUpdateContentOperation @ 176 NONAME
	_ZTV25CIAUpdateEngineConfigData @ 177 NONAME
	_ZTV25CIAUpdateInstallOperation @ 178 NONAME
	_ZTV25CIAUpdateNodeUidXmlParser @ 179 NONAME
	_ZTV25CIAUpdatePendingNodesFile @ 180 NONAME
	_ZTV26CIAUpdateDownloadOperation @ 181 NONAME
	_ZTV26CIAUpdateInterDepXmlParser @ 182 NONAME
	_ZTV26CIAUpdatePurchaseOperation @ 183 NONAME
	_ZTV27CIAUpdateEngineXmlSubParser @ 184 NONAME
	_ZTV27CIAUpdatePlatformDependency @ 185 NONAME
	_ZTV28CIAUpdateDependencyXmlParser @ 186 NONAME
	_ZTV28CIAUpdateFwPurchaseOperation @ 187 NONAME
	_ZTV28CIAUpdateNetworkRegistration @ 188 NONAME
	_ZTV29CIAUpdateNodeVersionXmlParser @ 189 NONAME
	_ZTV30CIAUpdateNodeEmbeddedXmlParser @ 190 NONAME
	_ZTV30CIAUpdateVersionBuildXmlParser @ 191 NONAME
	_ZTV30CIAUpdateVersionMajorXmlParser @ 192 NONAME
	_ZTV30CIAUpdateVersionMinorXmlParser @ 193 NONAME
	_ZTV31CIAUpdateDependencyXmlSubParser @ 194 NONAME
	_ZTV31CIAUpdateNormalContentOperation @ 195 NONAME
	_ZTV31CIAUpdateSelfUpdaterInitializer @ 196 NONAME
	_ZTV32CIAUpdateContentOperationManager @ 197 NONAME
	_ZTV32CIAUpdateNodeDependencyXmlParser @ 198 NONAME
	_ZTV32CIAUpdateSelfUpdateInitOperation @ 199 NONAME
	_ZTV33CIAUpdateNodeVersionRoofXmlParser @ 200 NONAME
	_ZTV33CIAUpdatePlatformVersionXmlParser @ 201 NONAME
	_ZTV34CIAUpdateNodeVersionFloorXmlParser @ 202 NONAME
	_ZTV36CIAUpdatePlatformDependencyXmlParser @ 203 NONAME
	_ZTV37CIAUpdatePlatformDescriptionXmlParser @ 204 NONAME
	_ZTV37CIAUpdatePlatformVersionRoofXmlParser @ 205 NONAME
	_ZTV38CIAUpdatePlatformVersionFloorXmlParser @ 206 NONAME
	_ZThn4_N21CIAUpdateXmlSubParser10OnContentLERK6TDesC8i @ 207 NONAME
	_ZThn4_N21CIAUpdateXmlSubParser13OnEndElementLERKN3Xml8RTagInfoEi @ 208 NONAME
	_ZThn4_N21CIAUpdateXmlSubParser14OnEndDocumentLEi @ 209 NONAME
	_ZThn4_N21CIAUpdateXmlSubParser15OnStartElementLERKN3Xml8RTagInfoERK6RArrayINS0_10RAttributeEEi @ 210 NONAME
	_ZThn4_N21CIAUpdateXmlSubParser16OnSkippedEntityLERK7RStringi @ 211 NONAME
	_ZThn4_N21CIAUpdateXmlSubParser16OnStartDocumentLERKN3Xml19RDocumentParametersEi @ 212 NONAME
	_ZThn4_N21CIAUpdateXmlSubParser19OnEndPrefixMappingLERK7RStringi @ 213 NONAME
	_ZThn4_N21CIAUpdateXmlSubParser20GetExtendedInterfaceEl @ 214 NONAME
	_ZThn4_N21CIAUpdateXmlSubParser21OnStartPrefixMappingLERK7RStringS2_i @ 215 NONAME
	_ZThn4_N21CIAUpdateXmlSubParser22OnIgnorableWhiteSpaceLERK6TDesC8i @ 216 NONAME
	_ZThn4_N21CIAUpdateXmlSubParser24OnProcessingInstructionLERK6TDesC8S2_i @ 217 NONAME
	_ZThn4_N21CIAUpdateXmlSubParser7OnErrorEi @ 218 NONAME

