EXPORTS
	_ZN13CSifUiAppInfo4NewLERK7TDesC16S2_RK8TVersioniPK16CApaMaskedBitmap @ 1 NONAME
	_ZN13CSifUiAppInfo4NewLERKS_ @ 2 NONAME
	_ZN13CSifUiAppInfo5NewLCERK7TDesC16S2_RK8TVersioniPK16CApaMaskedBitmap @ 3 NONAME
	_ZN15CSifUiErrorInfo4NewLEN4Usif14TErrorCategoryEiiRK7TDesC16S4_ @ 4 NONAME
	_ZN15CSifUiErrorInfo5NewLCEN4Usif14TErrorCategoryEiiRK7TDesC16S4_ @ 5 NONAME
	_ZN21CSifUiCertificateInfo4NewLERN3Swi16CCertificateInfoE @ 6 NONAME
	_ZN21CSifUiCertificateInfo5NewLCERN3Swi16CCertificateInfoE @ 7 NONAME
	_ZN6CSifUi11IsCancelledEv @ 8 NONAME
	_ZN6CSifUi11ShowFailedLERK15CSifUiErrorInfo @ 9 NONAME
	_ZN6CSifUi11ShowFailedLEiRK7TDesC16S2_ @ 10 NONAME
	_ZN6CSifUi13SelectedDriveERi @ 11 NONAME
	_ZN6CSifUi13ShowCompleteLEv @ 12 NONAME
	_ZN6CSifUi13ShowProgressLERK13CSifUiAppInfoiNS_16TInstallingPhaseE @ 13 NONAME
	_ZN6CSifUi14ShowPreparingLEv @ 14 NONAME
	_ZN6CSifUi16SetButtonVisibleENS_15TOptionalButtonEi @ 15 NONAME
	_ZN6CSifUi17ShowConfirmationLERK13CSifUiAppInfo @ 16 NONAME
	_ZN6CSifUi18ShowSelectOptionsLERK12MDesC16ArrayR6RArrayIiE @ 17 NONAME
	_ZN6CSifUi19SetCertificateInfoLERK13RPointerArrayI21CSifUiCertificateInfoE @ 18 NONAME
	_ZN6CSifUi19SetMemorySelectionLERK6RArrayIiE @ 19 NONAME
	_ZN6CSifUi19ShowMultiSelectionLERK7TDesC16RK12MDesC16ArrayR6RArrayIiE @ 20 NONAME
	_ZN6CSifUi19ShowSelectLanguageLERK6RArrayI9TLanguageE @ 21 NONAME
	_ZN6CSifUi20ShowSingleSelectionLERK7TDesC16RK12MDesC16ArrayRi @ 22 NONAME
	_ZN6CSifUi22ShowGrantCapabilitiesLERK14TCapabilitySet @ 23 NONAME
	_ZN6CSifUi25IncreaseProgressBarValueLEi @ 24 NONAME
	_ZN6CSifUi4NewLEv @ 25 NONAME
	_ZN6CSifUi5NewLCEv @ 26 NONAME
	_ZNK13CSifUiAppInfo12ExternalizeLER12RWriteStream @ 27 NONAME
	_ZNK13CSifUiAppInfo4NameEv @ 28 NONAME
	_ZNK13CSifUiAppInfo4SizeEv @ 29 NONAME
	_ZNK13CSifUiAppInfo6VendorEv @ 30 NONAME
	_ZNK13CSifUiAppInfo7BitmapsEv @ 31 NONAME
	_ZNK13CSifUiAppInfo7VersionEv @ 32 NONAME
	_ZNK21CSifUiCertificateInfo12ExternalizeLER12RWriteStream @ 33 NONAME
	_ZTI13CSifUiAppInfo @ 34 NONAME
	_ZTI13CSifUiPrivate @ 35 NONAME
	_ZTI15CSifUiErrorInfo @ 36 NONAME
	_ZTI21CSifUiCertificateInfo @ 37 NONAME
	_ZTI6CSifUi @ 38 NONAME
	_ZTV13CSifUiAppInfo @ 39 NONAME
	_ZTV13CSifUiPrivate @ 40 NONAME
	_ZTV15CSifUiErrorInfo @ 41 NONAME
	_ZTV21CSifUiCertificateInfo @ 42 NONAME
	_ZTV6CSifUi @ 43 NONAME
	_ZN6CSifUi13CancelDialogsEv @ 44 NONAME

