EXPORTS
	_ZN4Usif12CScrLogEntry12InternalizeLER11RReadStream @ 1 NONAME
	_ZN4Usif12CScrLogEntry4NewLERK7TDesC16S3_S3_S3_NS_26TScrComponentOperationTypeE @ 2 NONAME
	_ZN4Usif12CScrLogEntry5NewLCER11RReadStream @ 3 NONAME
	_ZN4Usif12CScrLogEntry5NewLCERK7TDesC16S3_S3_S3_NS_26TScrComponentOperationTypeE @ 4 NONAME
	_ZN4Usif14CPropertyEntry4NewLER11RReadStream @ 5 NONAME
	_ZN4Usif14CPropertyEntryD0Ev @ 6 NONAME
	_ZN4Usif14CPropertyEntryD1Ev @ 7 NONAME
	_ZN4Usif14CPropertyEntryD2Ev @ 8 NONAME
	_ZN4Usif15CComponentEntry12InternalizeLER11RReadStream @ 9 NONAME
	_ZN4Usif15CComponentEntry4NewLER11RReadStream @ 10 NONAME
	_ZN4Usif15CComponentEntry4NewLERKiRK7TDesC16S5_S5_S5_ixRKNS_11TScomoStateERK5TBuf8ILi26EES5_S5_iiii @ 11 NONAME
	_ZN4Usif15CComponentEntry4NewLEv @ 12 NONAME
	_ZN4Usif15CComponentEntry5NewLCERKiRK7TDesC16S5_S5_S5_ixRKNS_11TScomoStateERK5TBuf8ILi26EES5_S5_iiii @ 13 NONAME
	_ZN4Usif15CComponentEntry5NewLCEv @ 14 NONAME
	_ZN4Usif15CComponentEntryD0Ev @ 15 NONAME
	_ZN4Usif15CComponentEntryD1Ev @ 16 NONAME
	_ZN4Usif15CComponentEntryD2Ev @ 17 NONAME
	_ZN4Usif16CComponentFilter10SetVendorLERK7TDesC16 @ 18 NONAME
	_ZN4Usif16CComponentFilter12AddPropertyLERK7TDesC16RK6TDesC8NS0_11TDbOperatorES7_ @ 19 NONAME
	_ZN4Usif16CComponentFilter12AddPropertyLERK7TDesC16S3_9TLanguageNS0_11TDbOperatorES5_ @ 20 NONAME
	_ZN4Usif16CComponentFilter12AddPropertyLERK7TDesC16xNS0_11TDbOperatorES4_ @ 21 NONAME
	_ZN4Usif16CComponentFilter12SetRemovableEi @ 22 NONAME
	_ZN4Usif16CComponentFilter14SetScomoStateLENS_11TScomoStateE @ 23 NONAME
	_ZN4Usif16CComponentFilter15SetDrmProtectedEi @ 24 NONAME
	_ZN4Usif16CComponentFilter15SetKnownRevokedEi @ 25 NONAME
	_ZN4Usif16CComponentFilter16SetSoftwareTypeLERK7TDesC16 @ 26 NONAME
	_ZN4Usif16CComponentFilter17SetOriginVerifiedEi @ 27 NONAME
	_ZN4Usif16CComponentFilter19SetInstalledDrivesLERK5TBuf8ILi26EE @ 28 NONAME
	_ZN4Usif16CComponentFilter4NewLER11RReadStream @ 29 NONAME
	_ZN4Usif16CComponentFilter4NewLEv @ 30 NONAME
	_ZN4Usif16CComponentFilter5NewLCEv @ 31 NONAME
	_ZN4Usif16CComponentFilter8SetFileLERK7TDesC16 @ 32 NONAME
	_ZN4Usif16CComponentFilter8SetNameLERK7TDesC16 @ 33 NONAME
	_ZN4Usif16CComponentFilter9SetHiddenEi @ 34 NONAME
	_ZN4Usif17CIntPropertyEntry10Int64ValueEv @ 35 NONAME
	_ZN4Usif17CIntPropertyEntry4NewLERK7TDesC16x @ 36 NONAME
	_ZN4Usif17CIntPropertyEntry5NewLCERK7TDesC16x @ 37 NONAME
	_ZN4Usif17CIntPropertyEntry8IntValueEv @ 38 NONAME
	_ZN4Usif17CIntPropertyEntryD0Ev @ 39 NONAME
	_ZN4Usif17CIntPropertyEntryD1Ev @ 40 NONAME
	_ZN4Usif17CIntPropertyEntryD2Ev @ 41 NONAME
	_ZN4Usif18CGlobalComponentId12InternalizeLER11RReadStream @ 42 NONAME
	_ZN4Usif18CGlobalComponentId4NewLER11RReadStream @ 43 NONAME
	_ZN4Usif18CGlobalComponentId4NewLERK7TDesC16S3_ @ 44 NONAME
	_ZN4Usif18CGlobalComponentId5NewLCERK7TDesC16S3_ @ 45 NONAME
	_ZN4Usif18CGlobalComponentId5NewLCEv @ 46 NONAME
	_ZN4Usif18CGlobalComponentIdD0Ev @ 47 NONAME
	_ZN4Usif18CGlobalComponentIdD1Ev @ 48 NONAME
	_ZN4Usif18CGlobalComponentIdD2Ev @ 49 NONAME
	_ZN4Usif20CBinaryPropertyEntry11BinaryValueEv @ 50 NONAME
	_ZN4Usif20CBinaryPropertyEntry4NewLERK7TDesC16RK6TDesC8 @ 51 NONAME
	_ZN4Usif20CBinaryPropertyEntry5NewLCERK7TDesC16RK6TDesC8 @ 52 NONAME
	_ZN4Usif20CBinaryPropertyEntryD0Ev @ 53 NONAME
	_ZN4Usif20CBinaryPropertyEntryD1Ev @ 54 NONAME
	_ZN4Usif20CBinaryPropertyEntryD2Ev @ 55 NONAME
	_ZN4Usif21CVersionedComponentId12InternalizeLER11RReadStream @ 56 NONAME
	_ZN4Usif21CVersionedComponentId4NewLER11RReadStream @ 57 NONAME
	_ZN4Usif21CVersionedComponentId4NewLERKNS_18CGlobalComponentIdEPK7TDesC16S6_ @ 58 NONAME
	_ZN4Usif21CVersionedComponentId5NewLCERKNS_18CGlobalComponentIdEPK7TDesC16S6_ @ 59 NONAME
	_ZN4Usif21CVersionedComponentId5NewLCEv @ 60 NONAME
	_ZN4Usif21CVersionedComponentIdD0Ev @ 61 NONAME
	_ZN4Usif21CVersionedComponentIdD1Ev @ 62 NONAME
	_ZN4Usif21CVersionedComponentIdD2Ev @ 63 NONAME
	_ZN4Usif25CLocalizableComponentInfo10ConstructLERK7TDesC16S3_ @ 64 NONAME
	_ZN4Usif25CLocalizableComponentInfo12InternalizeLER11RReadStream @ 65 NONAME
	_ZN4Usif25CLocalizableComponentInfo4NewLER11RReadStream @ 66 NONAME
	_ZN4Usif25CLocalizableComponentInfo4NewLERK7TDesC16S3_9TLanguage @ 67 NONAME
	_ZN4Usif25CLocalizableComponentInfo5NewLCERK7TDesC16S3_9TLanguage @ 68 NONAME
	_ZN4Usif25CLocalizablePropertyEntry4NewLERK7TDesC16S3_9TLanguage @ 69 NONAME
	_ZN4Usif25CLocalizablePropertyEntry5NewLCERK7TDesC16S3_9TLanguage @ 70 NONAME
	_ZN4Usif25CLocalizablePropertyEntryD0Ev @ 71 NONAME
	_ZN4Usif25CLocalizablePropertyEntryD1Ev @ 72 NONAME
	_ZN4Usif25CLocalizablePropertyEntryD2Ev @ 73 NONAME
	_ZN4Usif26CLocalizedSoftwareTypeName10ConstructLERK7TDesC16 @ 74 NONAME
	_ZN4Usif26CLocalizedSoftwareTypeName12InternalizeLER11RReadStream @ 75 NONAME
	_ZN4Usif26CLocalizedSoftwareTypeName4NewLER11RReadStream @ 76 NONAME
	_ZN4Usif26CLocalizedSoftwareTypeName4NewLERK7TDesC169TLanguage @ 77 NONAME
	_ZN4Usif26CLocalizedSoftwareTypeName5NewLCERK7TDesC169TLanguage @ 78 NONAME
	_ZN4Usif26RSoftwareComponentRegistry13AddComponentLERK13RPointerArrayINS_25CLocalizableComponentInfoEERK7TDesC16PS7_NS_26TScrComponentOperationTypeE @ 79 NONAME
	_ZN4Usif26RSoftwareComponentRegistry13AddComponentLERK7TDesC16S3_S3_PS2_NS_26TScrComponentOperationTypeE @ 80 NONAME
	_ZN4Usif26RSoftwareComponentRegistry14SetVendorNameLEiRK7TDesC169TLanguage @ 81 NONAME
	_ZN4Usif26RSoftwareComponentRegistry16AddSoftwareTypeLERKNS_20CSoftwareTypeRegInfoE @ 82 NONAME
	_ZN4Usif26RSoftwareComponentRegistry16CompareVersionsLERK7TDesC16S3_ @ 83 NONAME
	_ZN4Usif26RSoftwareComponentRegistry16DeleteComponentLEi @ 84 NONAME
	_ZN4Usif26RSoftwareComponentRegistry16SetFilePropertyLEiRK7TDesC16S3_RK6TDesC8 @ 85 NONAME
	_ZN4Usif26RSoftwareComponentRegistry16SetFilePropertyLEiRK7TDesC16S3_i @ 86 NONAME
	_ZN4Usif26RSoftwareComponentRegistry17SetComponentNameLEiRK7TDesC169TLanguage @ 87 NONAME
	_ZN4Usif26RSoftwareComponentRegistry17SetComponentSizeLEix @ 88 NONAME
	_ZN4Usif26RSoftwareComponentRegistry18CommitTransactionLEv @ 89 NONAME
	_ZN4Usif26RSoftwareComponentRegistry18CreateTransactionLEv @ 90 NONAME
	_ZN4Usif26RSoftwareComponentRegistry19DeleteFilePropertyLEiRK7TDesC16S3_ @ 91 NONAME
	_ZN4Usif26RSoftwareComponentRegistry19DeleteSoftwareTypeLERK7TDesC16R13RPointerArrayI7HBufC16E @ 92 NONAME
	_ZN4Usif26RSoftwareComponentRegistry20IsComponentOrphanedLEi @ 93 NONAME
	_ZN4Usif26RSoftwareComponentRegistry20RollbackTransactionLEv @ 94 NONAME
	_ZN4Usif26RSoftwareComponentRegistry20SetComponentVersionLEiRK7TDesC16 @ 95 NONAME
	_ZN4Usif26RSoftwareComponentRegistry21SetComponentPropertyLEiRK7TDesC16RK6TDesC8 @ 96 NONAME
	_ZN4Usif26RSoftwareComponentRegistry21SetComponentPropertyLEiRK7TDesC16S3_9TLanguage @ 97 NONAME
	_ZN4Usif26RSoftwareComponentRegistry21SetComponentPropertyLEiRK7TDesC16x @ 98 NONAME
	_ZN4Usif26RSoftwareComponentRegistry21SetIsComponentHiddenLEii @ 99 NONAME
	_ZN4Usif26RSoftwareComponentRegistry22RegisterComponentFileLEiRK7TDesC16i @ 100 NONAME
	_ZN4Usif26RSoftwareComponentRegistry22SetIsComponentPresentLEii @ 101 NONAME
	_ZN4Usif26RSoftwareComponentRegistry23AddComponentDependencyLERKNS_21CVersionedComponentIdERKNS_18CGlobalComponentIdE @ 102 NONAME
	_ZN4Usif26RSoftwareComponentRegistry24DeleteComponentPropertyLEiRK7TDesC16 @ 103 NONAME
	_ZN4Usif26RSoftwareComponentRegistry24SetIsComponentRemovableLEii @ 104 NONAME
	_ZN4Usif26RSoftwareComponentRegistry24UnregisterComponentFileLEiRK7TDesC16 @ 105 NONAME
	_ZN4Usif26RSoftwareComponentRegistry26DeleteComponentDependencyLERKNS_18CGlobalComponentIdES3_ @ 106 NONAME
	_ZN4Usif26RSoftwareComponentRegistry27SetIsComponentDrmProtectedLEii @ 107 NONAME
	_ZN4Usif26RSoftwareComponentRegistry27SetIsComponentKnownRevokedLEii @ 108 NONAME
	_ZN4Usif26RSoftwareComponentRegistry29SetIsComponentOriginVerifiedLEii @ 109 NONAME
	_ZN4Usif26RSoftwareComponentRegistry5CloseEv @ 110 NONAME
	_ZN4Usif26RSoftwareComponentRegistry7ConnectEv @ 111 NONAME
	_ZN4Usif26RSoftwareComponentRegistryC1Ev @ 112 NONAME
	_ZN4Usif26RSoftwareComponentRegistryC2Ev @ 113 NONAME
	_ZN4Usif30RSoftwareComponentRegistryView5CloseEv @ 114 NONAME
	_ZN4Usif30RSoftwareComponentRegistryView9OpenViewLERKNS_26RSoftwareComponentRegistryEPNS_16CComponentFilterE @ 115 NONAME
	_ZN4Usif30RSoftwareComponentRegistryViewC1Ev @ 116 NONAME
	_ZN4Usif30RSoftwareComponentRegistryViewC2Ev @ 117 NONAME
	_ZN4Usif35RSoftwareComponentRegistryFilesList5CloseEv @ 118 NONAME
	_ZN4Usif35RSoftwareComponentRegistryFilesList9OpenListLERKNS_26RSoftwareComponentRegistryEi @ 119 NONAME
	_ZN4Usif35RSoftwareComponentRegistryFilesListC1Ev @ 120 NONAME
	_ZN4Usif35RSoftwareComponentRegistryFilesListC2Ev @ 121 NONAME
	_ZNK4Usif12CScrLogEntry11ComponentIdEv @ 122 NONAME
	_ZNK4Usif12CScrLogEntry12ExternalizeLER12RWriteStream @ 123 NONAME
	_ZNK4Usif12CScrLogEntry13ComponentNameEv @ 124 NONAME
	_ZNK4Usif12CScrLogEntry13OperationTimeEv @ 125 NONAME
	_ZNK4Usif12CScrLogEntry13OperationTypeEv @ 126 NONAME
	_ZNK4Usif12CScrLogEntry16ComponentVersionEv @ 127 NONAME
	_ZNK4Usif12CScrLogEntry16SoftwareTypeNameEv @ 128 NONAME
	_ZNK4Usif12CScrLogEntry8GlobalIdEv @ 129 NONAME
	_ZNK4Usif14CPropertyEntry12ExternalizeLER12RWriteStream @ 130 NONAME
	_ZNK4Usif14CPropertyEntry12PropertyNameEv @ 131 NONAME
	_ZNK4Usif15CComponentEntry10ScomoStateEv @ 132 NONAME
	_ZNK4Usif15CComponentEntry11ComponentIdEv @ 133 NONAME
	_ZNK4Usif15CComponentEntry11IsRemovableEv @ 134 NONAME
	_ZNK4Usif15CComponentEntry12ExternalizeLER12RWriteStream @ 135 NONAME
	_ZNK4Usif15CComponentEntry12InstallTimeLEv @ 136 NONAME
	_ZNK4Usif15CComponentEntry12SoftwareTypeEv @ 137 NONAME
	_ZNK4Usif15CComponentEntry13ComponentSizeEv @ 138 NONAME
	_ZNK4Usif15CComponentEntry14IsDrmProtectedEv @ 139 NONAME
	_ZNK4Usif15CComponentEntry14IsKnownRevokedEv @ 140 NONAME
	_ZNK4Usif15CComponentEntry15InstalledDrivesEv @ 141 NONAME
	_ZNK4Usif15CComponentEntry16IsOriginVerifiedEv @ 142 NONAME
	_ZNK4Usif15CComponentEntry4NameEv @ 143 NONAME
	_ZNK4Usif15CComponentEntry6VendorEv @ 144 NONAME
	_ZNK4Usif15CComponentEntry7VersionEv @ 145 NONAME
	_ZNK4Usif15CComponentEntry8GlobalIdEv @ 146 NONAME
	_ZNK4Usif15CComponentEntry8IsHiddenEv @ 147 NONAME
	_ZNK4Usif16CComponentFilter12ExternalizeLER12RWriteStream @ 148 NONAME
	_ZNK4Usif17CIntPropertyEntry12PropertyTypeEv @ 149 NONAME
	_ZNK4Usif18CGlobalComponentId12ExternalizeLER12RWriteStream @ 150 NONAME
	_ZNK4Usif18CGlobalComponentId12GlobalIdNameEv @ 151 NONAME
	_ZNK4Usif18CGlobalComponentId16SoftwareTypeNameEv @ 152 NONAME
	_ZNK4Usif20CBinaryPropertyEntry12PropertyTypeEv @ 153 NONAME
	_ZNK4Usif21CVersionedComponentId11VersionFromEv @ 154 NONAME
	_ZNK4Usif21CVersionedComponentId12ExternalizeLER12RWriteStream @ 155 NONAME
	_ZNK4Usif21CVersionedComponentId8GlobalIdEv @ 156 NONAME
	_ZNK4Usif21CVersionedComponentId9VersionToEv @ 157 NONAME
	_ZNK4Usif22CLocalizableCommonData6LocaleEv @ 158 NONAME
	_ZNK4Usif25CLocalizableComponentInfo12ExternalizeLER12RWriteStream @ 159 NONAME
	_ZNK4Usif25CLocalizableComponentInfo5NameLEv @ 160 NONAME
	_ZNK4Usif25CLocalizableComponentInfo7VendorLEv @ 161 NONAME
	_ZNK4Usif25CLocalizablePropertyEntry12PropertyTypeEv @ 162 NONAME
	_ZNK4Usif25CLocalizablePropertyEntry7LocaleLEv @ 163 NONAME
	_ZNK4Usif25CLocalizablePropertyEntry8StrValueEv @ 164 NONAME
	_ZNK4Usif26CLocalizedSoftwareTypeName12ExternalizeLER12RWriteStream @ 165 NONAME
	_ZNK4Usif26CLocalizedSoftwareTypeName5NameLEv @ 166 NONAME
	_ZNK4Usif26RSoftwareComponentRegistry13GetComponentLERK7TDesC16S3_9TLanguage @ 167 NONAME
	_ZNK4Usif26RSoftwareComponentRegistry13GetComponentLEiRNS_15CComponentEntryE9TLanguage @ 168 NONAME
	_ZNK4Usif26RSoftwareComponentRegistry13GetPluginUidLERK7TDesC16 @ 169 NONAME
	_ZNK4Usif26RSoftwareComponentRegistry13GetPluginUidLEi @ 170 NONAME
	_ZNK4Usif26RSoftwareComponentRegistry14GetComponentsLERK7TDesC16R6RArrayIiE @ 171 NONAME
	_ZNK4Usif26RSoftwareComponentRegistry14SetScomoStateLEiNS_11TScomoStateE @ 172 NONAME
	_ZNK4Usif26RSoftwareComponentRegistry15GetComponentIdLERK7TDesC16S3_ @ 173 NONAME
	_ZNK4Usif26RSoftwareComponentRegistry15IsMediaPresentLEi @ 174 NONAME
	_ZNK4Usif26RSoftwareComponentRegistry16GetComponentIdsLER6RArrayIiEPNS_16CComponentFilterE @ 175 NONAME
	_ZNK4Usif26RSoftwareComponentRegistry16GetFilePropertyLEiRK7TDesC16S3_ @ 176 NONAME
	_ZNK4Usif26RSoftwareComponentRegistry18GetFilePropertiesLEiRK7TDesC16R13RPointerArrayINS_14CPropertyEntryEE @ 177 NONAME
	_ZNK4Usif26RSoftwareComponentRegistry19IsComponentPresentLEi @ 178 NONAME
	_ZNK4Usif26RSoftwareComponentRegistry19RetrieveLogEntriesLER13RPointerArrayINS_12CScrLogEntryEEPK7TDesC16 @ 179 NONAME
	_ZNK4Usif26RSoftwareComponentRegistry21GetComponentPropertyLEiRK7TDesC169TLanguage @ 180 NONAME
	_ZNK4Usif26RSoftwareComponentRegistry22GetSupplierComponentsLERKNS_18CGlobalComponentIdER13RPointerArrayINS_21CVersionedComponentIdEE @ 181 NONAME
	_ZNK4Usif26RSoftwareComponentRegistry23GetComponentFilesCountLEi @ 182 NONAME
	_ZNK4Usif26RSoftwareComponentRegistry23GetComponentPropertiesLEiR13RPointerArrayINS_14CPropertyEntryEE9TLanguage @ 183 NONAME
	_ZNK4Usif26RSoftwareComponentRegistry23GetDependantComponentsLERKNS_18CGlobalComponentIdER13RPointerArrayINS_21CVersionedComponentIdEE @ 184 NONAME
	_ZNK4Usif26RSoftwareComponentRegistry27IsComponentOnReadOnlyDriveLEi @ 185 NONAME
	_ZNK4Usif30RSoftwareComponentRegistryView14NextComponentLE9TLanguage @ 186 NONAME
	_ZNK4Usif30RSoftwareComponentRegistryView14NextComponentLERNS_15CComponentEntryE9TLanguage @ 187 NONAME
	_ZNK4Usif30RSoftwareComponentRegistryView17NextComponentSetLEiR13RPointerArrayINS_15CComponentEntryEE9TLanguage @ 188 NONAME
	_ZNK4Usif35RSoftwareComponentRegistryFilesList12NextFileSetLEiR13RPointerArrayI7HBufC16E @ 189 NONAME
	_ZNK4Usif35RSoftwareComponentRegistryFilesList9NextFileLEv @ 190 NONAME
	_ZTIN4Usif14CPropertyEntryE @ 191 NONAME
	_ZTIN4Usif15CComponentEntryE @ 192 NONAME
	_ZTIN4Usif17CIntPropertyEntryE @ 193 NONAME
	_ZTIN4Usif20CBinaryPropertyEntryE @ 194 NONAME
	_ZTIN4Usif22CLocalizableCommonDataE @ 195 NONAME
	_ZTVN4Usif14CPropertyEntryE @ 196 NONAME
	_ZTVN4Usif15CComponentEntryE @ 197 NONAME
	_ZTVN4Usif17CIntPropertyEntryE @ 198 NONAME
	_ZTVN4Usif20CBinaryPropertyEntryE @ 199 NONAME
	_ZTVN4Usif22CLocalizableCommonDataE @ 200 NONAME
	_ZNK4Usif26RSoftwareComponentRegistry33GetComponentSupportedLocalesListLEiR6RArrayI9TLanguageE @ 201 NONAME
	_ZNK4Usif26RSoftwareComponentRegistry26GetComponentLocalizedInfoLEiR13RPointerArrayINS_25CLocalizableComponentInfoEE @ 202 NONAME
	_ZN4Usif11COpaqueData10OpaqueDataEv @ 203 NONAME
	_ZN4Usif11COpaqueData12InternalizeLER11RReadStream @ 204 NONAME
	_ZN4Usif11COpaqueData4NewLER11RReadStream @ 205 NONAME
	_ZN4Usif11COpaqueData4NewLER6TDesC89TLanguage @ 206 NONAME
	_ZN4Usif11COpaqueData4NewLEv @ 207 NONAME
	_ZN4Usif11COpaqueData5NewLCER6TDesC89TLanguage @ 208 NONAME
	_ZN4Usif11COpaqueData5NewLCEv @ 209 NONAME
	_ZN4Usif11COpaqueData8LanguageEv @ 210 NONAME
	_ZN4Usif11TAppRegInfo12InternalizeLER11RReadStream @ 211 NONAME
	_ZN4Usif11TAppRegInfoC1E4TUidRK4TBufILi256EES5_ @ 212 NONAME
	_ZN4Usif11TAppRegInfoC1E4TUidRK4TBufILi256EES5_S5_ @ 213 NONAME
	_ZN4Usif11TAppRegInfoC1Ev @ 214 NONAME
	_ZN4Usif11TAppRegInfoC2E4TUidRK4TBufILi256EES5_ @ 215 NONAME
	_ZN4Usif11TAppRegInfoC2E4TUidRK4TBufILi256EES5_S5_ @ 216 NONAME
	_ZN4Usif11TAppRegInfoC2Ev @ 217 NONAME
	_ZN4Usif12CAppViewData12InternalizeLER11RReadStream @ 218 NONAME
	_ZN4Usif12CAppViewData4NewLE4TUidiPNS_19CCaptionAndIconInfoE @ 219 NONAME
	_ZN4Usif12CAppViewData4NewLER11RReadStream @ 220 NONAME
	_ZN4Usif12CAppViewData4NewLEv @ 221 NONAME
	_ZN4Usif12CAppViewData5NewLCE4TUidiPNS_19CCaptionAndIconInfoE @ 222 NONAME
	_ZN4Usif12CAppViewData5NewLCEv @ 223 NONAME
	_ZN4Usif12CServiceInfo12InternalizeLER11RReadStream @ 224 NONAME
	_ZN4Usif12CServiceInfo4NewLE4TUidR13RPointerArrayINS_11COpaqueDataEERS2_INS_9CDataTypeEE @ 225 NONAME
	_ZN4Usif12CServiceInfo4NewLER11RReadStream @ 226 NONAME
	_ZN4Usif12CServiceInfo4NewLEv @ 227 NONAME
	_ZN4Usif12CServiceInfo5NewLCE4TUidR13RPointerArrayINS_11COpaqueDataEERS2_INS_9CDataTypeEE @ 228 NONAME
	_ZN4Usif12CServiceInfo5NewLCEv @ 229 NONAME
	_ZN4Usif14CAppInfoFilter10SetAllAppsEi @ 230 NONAME
	_ZN4Usif14CAppInfoFilter10SetAllAppsEv @ 231 NONAME
	_ZN4Usif14CAppInfoFilter13SetServerAppsE4TUid @ 232 NONAME
	_ZN4Usif14CAppInfoFilter13SetServerAppsE4TUidi @ 233 NONAME
	_ZN4Usif14CAppInfoFilter17SetEmbeddableAppsEi @ 234 NONAME
	_ZN4Usif14CAppInfoFilter17SetEmbeddableAppsEv @ 235 NONAME
	_ZN4Usif14CAppInfoFilter22SetEmbeddabilityFilterERNS_17TEmbeddableFilterE @ 236 NONAME
	_ZN4Usif14CAppInfoFilter34SetCapabilityAttributeMaskAndValueEii @ 237 NONAME
	_ZN4Usif14CAppInfoFilter34SetCapabilityAttributeMaskAndValueEiii @ 238 NONAME
	_ZN4Usif14CAppInfoFilter36SetEmbeddabilityFilterWithScreenModeERNS_17TEmbeddableFilterEi @ 239 NONAME
	_ZN4Usif14CAppInfoFilter4NewLER11RReadStream @ 240 NONAME
	_ZN4Usif14CAppInfoFilter4NewLEv @ 241 NONAME
	_ZN4Usif14CAppInfoFilter5NewLCEv @ 242 NONAME
	_ZN4Usif17TEmbeddableFilter16AddEmbeddabilityENS_27TApplicationCharacteristics17TAppEmbeddabilityE @ 243 NONAME
	_ZN4Usif17TEmbeddableFilterC1Ev @ 244 NONAME
	_ZN4Usif17TEmbeddableFilterC2Ev @ 245 NONAME
	_ZN4Usif18RScrInternalClient5CloseEv @ 246 NONAME
	_ZN4Usif18RScrInternalClient7ConnectEv @ 247 NONAME
	_ZN4Usif18RScrInternalClientC1Ev @ 248 NONAME
	_ZN4Usif18RScrInternalClientC2Ev @ 249 NONAME
	_ZN4Usif19CCaptionAndIconInfo12InternalizeLER11RReadStream @ 250 NONAME
	_ZN4Usif19CCaptionAndIconInfo4NewLER11RReadStream @ 251 NONAME
	_ZN4Usif19CCaptionAndIconInfo4NewLERK7TDesC16S3_i @ 252 NONAME
	_ZN4Usif19CCaptionAndIconInfo4NewLEv @ 253 NONAME
	_ZN4Usif19CCaptionAndIconInfo5NewLCERK7TDesC16S3_i @ 254 NONAME
	_ZN4Usif19CCaptionAndIconInfo5NewLCEv @ 255 NONAME
	_ZN4Usif19CLauncherExecutable12InternalizeLER11RReadStream @ 256 NONAME
	_ZN4Usif19CLauncherExecutable4NewLER11RReadStream @ 257 NONAME
	_ZN4Usif19CLauncherExecutable4NewLEiRK7TDesC16 @ 258 NONAME
	_ZN4Usif19CLauncherExecutable4NewLEv @ 259 NONAME
	_ZN4Usif19CLauncherExecutable5NewLCEiRK7TDesC16 @ 260 NONAME
	_ZN4Usif19CLauncherExecutable5NewLCEv @ 261 NONAME
	_ZN4Usif19CLocalizableAppInfo12InternalizeLER11RReadStream @ 262 NONAME
	_ZN4Usif19CLocalizableAppInfo4NewLER11RReadStream @ 263 NONAME
	_ZN4Usif19CLocalizableAppInfo4NewLERK7TDesC169TLanguageS3_PNS_19CCaptionAndIconInfoER13RPointerArrayINS_12CAppViewDataEE @ 264 NONAME
	_ZN4Usif19CLocalizableAppInfo4NewLEv @ 265 NONAME
	_ZN4Usif19CLocalizableAppInfo5NewLCERK7TDesC169TLanguageS3_PNS_19CCaptionAndIconInfoER13RPointerArrayINS_12CAppViewDataEE @ 266 NONAME
	_ZN4Usif19CLocalizableAppInfo5NewLCEv @ 267 NONAME
	_ZN4Usif20RApplicationInfoView5CloseEv @ 268 NONAME
	_ZN4Usif20RApplicationInfoView9OpenViewLERKNS_26RSoftwareComponentRegistryEPNS_14CAppInfoFilterE9TLanguage @ 269 NONAME
	_ZN4Usif20RApplicationInfoViewC1Ev @ 270 NONAME
	_ZN4Usif20RApplicationInfoViewC2Ev @ 271 NONAME
	_ZN4Usif21CAppServiceInfoFilter23SetAppUidForServiceInfoE4TUid @ 272 NONAME
	_ZN4Usif21CAppServiceInfoFilter35SetAppUidAndServiceUidForOpaqueDataE4TUidS1_ @ 273 NONAME
	_ZN4Usif21CAppServiceInfoFilter38SetServiceUidForServiceImplementationsE4TUid @ 274 NONAME
	_ZN4Usif21CAppServiceInfoFilter4NewLER11RReadStream @ 275 NONAME
	_ZN4Usif21CAppServiceInfoFilter4NewLEv @ 276 NONAME
	_ZN4Usif21CAppServiceInfoFilter51SetServiceUidAndDatatTypeForServiceImplementationsLE4TUidRK7TDesC16 @ 277 NONAME
	_ZN4Usif21CAppServiceInfoFilter5NewLCEv @ 278 NONAME
	_ZN4Usif24RApplicationRegistryView5CloseEv @ 279 NONAME
	_ZN4Usif24RApplicationRegistryView9OpenViewLERKNS_26RSoftwareComponentRegistryE9TLanguage @ 280 NONAME
	_ZN4Usif24RApplicationRegistryView9OpenViewLERKNS_26RSoftwareComponentRegistryERK6RArrayI4TUidE9TLanguage @ 281 NONAME
	_ZN4Usif24RApplicationRegistryViewC1Ev @ 282 NONAME
	_ZN4Usif24RApplicationRegistryViewC2Ev @ 283 NONAME
	_ZN4Usif26RSoftwareComponentRegistry20AddApplicationEntryLEiRKNS_28CApplicationRegistrationDataE @ 284 NONAME
	_ZN4Usif26RSoftwareComponentRegistry23DeleteApplicationEntryLE4TUid @ 285 NONAME
	_ZN4Usif26RSoftwareComponentRegistry25DeleteApplicationEntriesLEi @ 286 NONAME
	_ZN4Usif27TApplicationCharacteristics12InternalizeLER11RReadStream @ 287 NONAME
	_ZN4Usif27TApplicationCharacteristicsC1Ev @ 288 NONAME
	_ZN4Usif27TApplicationCharacteristicsC2Ev @ 289 NONAME
	_ZN4Usif28CApplicationRegistrationData12InternalizeLER11RReadStream @ 290 NONAME
	_ZN4Usif28CApplicationRegistrationData4NewLER11RReadStream @ 291 NONAME
	_ZN4Usif28CApplicationRegistrationData4NewLER13RPointerArrayI7HBufC16ERS1_INS_12CServiceInfoEERS1_INS_19CLocalizableAppInfoEERS1_INS_14CPropertyEntryEE4TUidRK7TDesC16 @ 292 NONAME
	_ZN4Usif28CApplicationRegistrationData4NewLER13RPointerArrayI7HBufC16ERS1_INS_12CServiceInfoEERS1_INS_19CLocalizableAppInfoEERS1_INS_14CPropertyEntryEERS1_INS_11COpaqueDataEE4TUidRK7TDesC16RNS_27TApplicationCharacteristicsEii @ 293 NONAME
	_ZN4Usif28CApplicationRegistrationData4NewLEv @ 294 NONAME
	_ZN4Usif28CApplicationRegistrationData5NewLCER13RPointerArrayI7HBufC16ERS1_INS_12CServiceInfoEERS1_INS_19CLocalizableAppInfoEERS1_INS_14CPropertyEntryEE4TUidRK7TDesC16 @ 295 NONAME
	_ZN4Usif28CApplicationRegistrationData5NewLCER13RPointerArrayI7HBufC16ERS1_INS_12CServiceInfoEERS1_INS_19CLocalizableAppInfoEERS1_INS_14CPropertyEntryEERS1_INS_11COpaqueDataEE4TUidRK7TDesC16RNS_27TApplicationCharacteristicsEii @ 296 NONAME
	_ZN4Usif28CApplicationRegistrationData5NewLCEv @ 297 NONAME
	_ZN4Usif28RApplicationRegistrationInfo11GetAppInfoLE4TUidRNS_11TAppRegInfoE9TLanguage @ 298 NONAME
	_ZN4Usif28RApplicationRegistrationInfo5CloseEv @ 299 NONAME
	_ZN4Usif28RApplicationRegistrationInfo5OpenLERKNS_26RSoftwareComponentRegistryE @ 300 NONAME
	_ZN4Usif28RApplicationRegistrationInfoC1Ev @ 301 NONAME
	_ZN4Usif28RApplicationRegistrationInfoC2Ev @ 302 NONAME
	_ZN4Usif31RRegistrationInfoForApplication5CloseEv @ 303 NONAME
	_ZN4Usif31RRegistrationInfoForApplication5OpenLERKNS_26RSoftwareComponentRegistryE4TUid9TLanguage @ 304 NONAME
	_ZN4Usif31RRegistrationInfoForApplicationC1Ev @ 305 NONAME
	_ZN4Usif31RRegistrationInfoForApplicationC2Ev @ 306 NONAME
	_ZN4Usif9CDataType12InternalizeLER11RReadStream @ 307 NONAME
	_ZN4Usif9CDataType4NewLER11RReadStream @ 308 NONAME
	_ZN4Usif9CDataType4NewLEiRK7TDesC16 @ 309 NONAME
	_ZN4Usif9CDataType4NewLEv @ 310 NONAME
	_ZN4Usif9CDataType5NewLCEiRK7TDesC16 @ 311 NONAME
	_ZN4Usif9CDataType5NewLCEv @ 312 NONAME
	_ZNK4Usif11COpaqueData12ExternalizeLER12RWriteStream @ 313 NONAME
	_ZNK4Usif11TAppRegInfo12ExternalizeLER12RWriteStream @ 314 NONAME
	_ZNK4Usif11TAppRegInfo12ShortCaptionEv @ 315 NONAME
	_ZNK4Usif11TAppRegInfo3UidEv @ 316 NONAME
	_ZNK4Usif11TAppRegInfo7CaptionEv @ 317 NONAME
	_ZNK4Usif11TAppRegInfo8FullNameEv @ 318 NONAME
	_ZNK4Usif12CAppViewData10ScreenModeEv @ 319 NONAME
	_ZNK4Usif12CAppViewData12ExternalizeLER12RWriteStream @ 320 NONAME
	_ZNK4Usif12CAppViewData18CaptionAndIconInfoEv @ 321 NONAME
	_ZNK4Usif12CAppViewData3UidEv @ 322 NONAME
	_ZNK4Usif12CServiceInfo10OpaqueDataEv @ 323 NONAME
	_ZNK4Usif12CServiceInfo12ExternalizeLER12RWriteStream @ 324 NONAME
	_ZNK4Usif12CServiceInfo3UidEv @ 325 NONAME
	_ZNK4Usif12CServiceInfo9DataTypesEv @ 326 NONAME
	_ZNK4Usif14CAppInfoFilter12ExternalizeLER12RWriteStream @ 327 NONAME
	_ZNK4Usif17TEmbeddableFilter18EmbeddabilityFlagsEv @ 328 NONAME
	_ZNK4Usif17TEmbeddableFilter20MatchesEmbeddabilityENS_27TApplicationCharacteristics17TAppEmbeddabilityE @ 329 NONAME
	_ZNK4Usif18RScrInternalClient18GenerateNewAppUidLEv @ 330 NONAME
	_ZNK4Usif19CCaptionAndIconInfo12ExternalizeLER12RWriteStream @ 331 NONAME
	_ZNK4Usif19CCaptionAndIconInfo12IconFileNameEv @ 332 NONAME
	_ZNK4Usif19CCaptionAndIconInfo13NumOfAppIconsEv @ 333 NONAME
	_ZNK4Usif19CCaptionAndIconInfo7CaptionEv @ 334 NONAME
	_ZNK4Usif19CLauncherExecutable12ExternalizeLER12RWriteStream @ 335 NONAME
	_ZNK4Usif19CLauncherExecutable6TypeIdEv @ 336 NONAME
	_ZNK4Usif19CLauncherExecutable8LauncherEv @ 337 NONAME
	_ZNK4Usif19CLocalizableAppInfo12ExternalizeLER12RWriteStream @ 338 NONAME
	_ZNK4Usif19CLocalizableAppInfo12ShortCaptionEv @ 339 NONAME
	_ZNK4Usif19CLocalizableAppInfo12ViewDataListEv @ 340 NONAME
	_ZNK4Usif19CLocalizableAppInfo18CaptionAndIconInfoEv @ 341 NONAME
	_ZNK4Usif19CLocalizableAppInfo19ApplicationLanguageEv @ 342 NONAME
	_ZNK4Usif19CLocalizableAppInfo9GroupNameEv @ 343 NONAME
	_ZNK4Usif20RApplicationInfoView15GetNextAppInfoLEiR13RPointerArrayINS_11TAppRegInfoEE @ 344 NONAME
	_ZNK4Usif21CAppServiceInfoFilter12ExternalizeLER12RWriteStream @ 345 NONAME
	_ZNK4Usif24RApplicationRegistryView35GetNextApplicationRegistrationInfoLEiR13RPointerArrayINS_28CApplicationRegistrationDataEE @ 346 NONAME
	_ZNK4Usif26RSoftwareComponentRegistry21GetComponentIdForAppLE4TUid @ 347 NONAME
	_ZNK4Usif26RSoftwareComponentRegistry23GetAppUidsForComponentLEiR6RArrayI4TUidE @ 348 NONAME
	_ZNK4Usif26RSoftwareComponentRegistry24GetApplicationLaunchersLER13RPointerArrayINS_19CLauncherExecutableEE @ 349 NONAME
	_ZNK4Usif27TApplicationCharacteristics12ExternalizeLER12RWriteStream @ 350 NONAME
	_ZNK4Usif28CApplicationRegistrationData10AttributesEv @ 351 NONAME
	_ZNK4Usif28CApplicationRegistrationData12ExternalizeLER12RWriteStream @ 352 NONAME
	_ZNK4Usif28CApplicationRegistrationData12ServiceArrayEv @ 353 NONAME
	_ZNK4Usif28CApplicationRegistrationData13AppOpaqueDataEv @ 354 NONAME
	_ZNK4Usif28CApplicationRegistrationData13AppPropertiesEv @ 355 NONAME
	_ZNK4Usif28CApplicationRegistrationData13EmbeddabilityEv @ 356 NONAME
	_ZNK4Usif28CApplicationRegistrationData14OwnedFileArrayEv @ 357 NONAME
	_ZNK4Usif28CApplicationRegistrationData19DefaultScreenNumberEv @ 358 NONAME
	_ZNK4Usif28CApplicationRegistrationData22LocalizableAppInfoListEv @ 359 NONAME
	_ZNK4Usif28CApplicationRegistrationData6AppUidEv @ 360 NONAME
	_ZNK4Usif28CApplicationRegistrationData6HiddenEv @ 361 NONAME
	_ZNK4Usif28CApplicationRegistrationData6LaunchEv @ 362 NONAME
	_ZNK4Usif28CApplicationRegistrationData6TypeIdEv @ 363 NONAME
	_ZNK4Usif28CApplicationRegistrationData7AppFileEv @ 364 NONAME
	_ZNK4Usif28CApplicationRegistrationData7NewFileEv @ 365 NONAME
	_ZNK4Usif28CApplicationRegistrationData9GroupNameEv @ 366 NONAME
	_ZNK4Usif28RApplicationRegistrationInfo15GetServiceInfoLEPNS_21CAppServiceInfoFilterER13RPointerArrayINS_12CServiceInfoEE9TLanguage @ 367 NONAME
	_ZNK4Usif28RApplicationRegistrationInfo18GetAppForDataTypeLERK7TDesC16 @ 368 NONAME
	_ZNK4Usif28RApplicationRegistrationInfo28GetAppForDataTypeAndServiceLERK7TDesC164TUid @ 369 NONAME
	_ZNK4Usif31RRegistrationInfoForApplication11GetAppIconLERP7HBufC16 @ 370 NONAME
	_ZNK4Usif31RRegistrationInfoForApplication12GetAppViewsLER13RPointerArrayINS_12CAppViewDataEE @ 371 NONAME
	_ZNK4Usif31RRegistrationInfoForApplication15GetAppViewIconLE4TUidRP7HBufC16 @ 372 NONAME
	_ZNK4Usif31RRegistrationInfoForApplication17GetAppOwnedFilesLER13RPointerArrayI7HBufC16E @ 373 NONAME
	_ZNK4Usif31RRegistrationInfoForApplication19GetAppServicesUidsLER6RArrayI4TUidE @ 374 NONAME
	_ZNK4Usif31RRegistrationInfoForApplication20ApplicationLanguageLEv @ 375 NONAME
	_ZNK4Usif31RRegistrationInfoForApplication20DefaultScreenNumberLEv @ 376 NONAME
	_ZNK4Usif31RRegistrationInfoForApplication22GetAppCharacteristicsLERNS_27TApplicationCharacteristicsE @ 377 NONAME
	_ZNK4Usif31RRegistrationInfoForApplication24NumberOfOwnDefinedIconsLEv @ 378 NONAME
	_ZNK4Usif9CDataType12ExternalizeLER12RWriteStream @ 379 NONAME
	_ZNK4Usif9CDataType4TypeEv @ 380 NONAME
	_ZNK4Usif9CDataType8PriorityEv @ 381 NONAME
	_ZN4Usif20CSoftwareTypeRegInfo12SetMimeTypeLERK7TDesC16 @ 382 NONAME
	_ZN4Usif20CSoftwareTypeRegInfo22SetLauncherExecutableLERK7TDesC16 @ 383 NONAME
	_ZN4Usif20CSoftwareTypeRegInfo29SetLocalizedSoftwareTypeNameLE9TLanguageRK7TDesC16 @ 384 NONAME
	_ZN4Usif20CSoftwareTypeRegInfo4NewLER11RReadStream @ 385 NONAME
	_ZN4Usif20CSoftwareTypeRegInfo4NewLERK7TDesC16 @ 386 NONAME
	_ZN4Usif20CSoftwareTypeRegInfoD0Ev @ 387 NONAME
	_ZN4Usif20CSoftwareTypeRegInfoD1Ev @ 388 NONAME
	_ZN4Usif20CSoftwareTypeRegInfoD2Ev @ 389 NONAME
	_ZN4Usif17TCustomAccessInfoC1E9TSecureIdNS_11TAccessModeE @ 390 NONAME
	_ZN4Usif17TCustomAccessInfoC2E9TSecureIdNS_11TAccessModeE @ 391 NONAME
	_ZNK4Usif17TCustomAccessInfo10AccessModeEv @ 392 NONAME
	_ZNK4Usif17TCustomAccessInfo8SecureIdEv @ 393 NONAME
	_ZNK4Usif20CSoftwareTypeRegInfo12ExternalizeLER12RWriteStream @ 394 NONAME
	_ZN4Usif16CComponentFilter17TPropertyOperator12InternalizeLER11RReadStream @ 395 NONAME
	_ZN4Usif16CComponentFilter17TPropertyOperatorC1ENS0_11TDbOperatorES2_ @ 396 NONAME
	_ZN4Usif16CComponentFilter17TPropertyOperatorC2ENS0_11TDbOperatorES2_ @ 397 NONAME
	_ZNK4Usif16CComponentFilter17TPropertyOperator12NameOperatorEv @ 398 NONAME
	_ZNK4Usif16CComponentFilter17TPropertyOperator13ValueOperatorEv @ 399 NONAME
	_ZN4Usif19CLauncherExecutableD0Ev @ 400 NONAME
	_ZN4Usif19CLauncherExecutableD1Ev @ 401 NONAME
	_ZN4Usif19CLauncherExecutableD2Ev @ 402 NONAME

