EXPORTS
	?Connect@RTestUtilSessionSwi@@QAEHXZ @ 1 NONAME ; int RTestUtilSessionSwi::Connect(void)
	?GetFileHash@RTestUtilSessionSwi@@QAEHABVTDesC16@@AAVTDes8@@@Z @ 2 NONAME ; int RTestUtilSessionSwi::GetFileHash(class TDesC16 const &, class TDes8 &)
	?RegenerateRegistryCacheL@RTestUtilSessionSwi@@QAEXXZ @ 3 NONAME ; void RTestUtilSessionSwi::RegenerateRegistryCacheL(void)
	?WatchFileCancelL@RTestUtilSessionSwi@@QAEXXZ @ 4 NONAME ; void RTestUtilSessionSwi::WatchFileCancelL(void)
	?Move@RTestUtilSessionSwi@@QAEHABVTDesC16@@0@Z @ 5 NONAME ; int RTestUtilSessionSwi::Move(class TDesC16 const &, class TDesC16 const &)
	?Copy@RTestUtilSessionSwi@@QAEHABVTDesC16@@0@Z @ 6 NONAME ; int RTestUtilSessionSwi::Copy(class TDesC16 const &, class TDesC16 const &)
	?RmDir@RTestUtilSessionSwi@@QAEHABVTDesC16@@@Z @ 7 NONAME ; int RTestUtilSessionSwi::RmDir(class TDesC16 const &)
	?UnMountDrive@RTestUtilSessionSwi@@QAEHH@Z @ 8 NONAME ; int RTestUtilSessionSwi::UnMountDrive(int)
	?MkDirAll@RTestUtilSessionSwi@@QAEHABVTDesC16@@@Z @ 9 NONAME ; int RTestUtilSessionSwi::MkDirAll(class TDesC16 const &)
	?GetFileHandle@RTestUtilSessionSwi@@QAEHABVTDesC16@@AAVRFile@@@Z @ 10 NONAME ; int RTestUtilSessionSwi::GetFileHandle(class TDesC16 const &, class RFile &)
	?Lock@RTestUtilSessionSwi@@QAEHABVTDesC16@@@Z @ 11 NONAME ; int RTestUtilSessionSwi::Lock(class TDesC16 const &)
	?Unlock@RTestUtilSessionSwi@@QAEHABVTDesC16@@@Z @ 12 NONAME ; int RTestUtilSessionSwi::Unlock(class TDesC16 const &)
	?SetReadOnly@RTestUtilSessionSwi@@QAEHABVTDesC16@@H@Z @ 13 NONAME ; int RTestUtilSessionSwi::SetReadOnly(class TDesC16 const &, int)
	?FileExistsL@RTestUtilSessionSwi@@QAEHABVTDesC16@@H@Z @ 14 NONAME ; int RTestUtilSessionSwi::FileExistsL(class TDesC16 const &, int)
	?FileExistsL@RTestUtilSessionSwi@@QAEHABVTDesC16@@@Z @ 15 NONAME ; int RTestUtilSessionSwi::FileExistsL(class TDesC16 const &)
	?Delete@RTestUtilSessionSwi@@QAEHABVTDesC16@@@Z @ 16 NONAME ; int RTestUtilSessionSwi::Delete(class TDesC16 const &)
	?GetNumFilesL@RTestUtilSessionSwi@@QAEHABVTDesC16@@@Z @ 17 NONAME ; int RTestUtilSessionSwi::GetNumFilesL(class TDesC16 const &)
	?FormatDrive@RTestUtilSessionSwi@@QAEHHH@Z @ 18 NONAME ; int RTestUtilSessionSwi::FormatDrive(int, int)
	?MountDrive@RTestUtilSessionSwi@@QAEHH@Z @ 19 NONAME ; int RTestUtilSessionSwi::MountDrive(int)
	?WatchFile@RTestUtilSessionSwi@@QAEXABVTDesC16@@AAVTRequestStatus@@@Z @ 20 NONAME ; void RTestUtilSessionSwi::WatchFile(class TDesC16 const &, class TRequestStatus &)

