EXPORTS
	_ZN3Swi3Sis6Parser9ContentsLERNS_16MSisDataProviderE @ 1 NONAME
	_ZN3Swi3Sis9CContents9ReadDataLER5RFileii @ 2 NONAME
	_ZNK3Swi3Sis6CField6LengthEv @ 3 NONAME
	_ZNK3Swi3Sis9CContents15ReadControllerLEv @ 4 NONAME
	_ZTIN3Swi23CCompressedDataProviderE @ 5 NONAME ; #<TI>#
	_ZTIN3Swi3Sis11CCompressedE @ 6 NONAME ; #<TI>#
	_ZTIN3Swi3Sis4CCrcE @ 7 NONAME ; #<TI>#
	_ZTIN3Swi3Sis5CDataE @ 8 NONAME ; #<TI>#
	_ZTIN3Swi3Sis6CFieldE @ 9 NONAME ; #<TI>#
	_ZTIN3Swi3Sis9CContentsE @ 10 NONAME ; #<TI>#
	_ZTIN3Swi3Sis9CDataUnitE @ 11 NONAME ; #<TI>#
	_ZTIN3Swi3Sis9CFileDataE @ 12 NONAME ; #<TI>#
	_ZTVN3Swi23CCompressedDataProviderE @ 13 NONAME ; #<VT>#
	_ZTVN3Swi3Sis11CCompressedE @ 14 NONAME ; #<VT>#
	_ZTVN3Swi3Sis4CCrcE @ 15 NONAME ; #<VT>#
	_ZTVN3Swi3Sis5CDataE @ 16 NONAME ; #<VT>#
	_ZTVN3Swi3Sis6CFieldE @ 17 NONAME ; #<VT>#
	_ZTVN3Swi3Sis9CContentsE @ 18 NONAME ; #<VT>#
	_ZTVN3Swi3Sis9CDataUnitE @ 19 NONAME ; #<VT>#
	_ZTVN3Swi3Sis9CFileDataE @ 20 NONAME ; #<VT>#
	_ZN3Swi3Sis9CContents9ReadDataLER5RFileiix @ 21 NONAME
	_ZN3Swi3Sis5CBlob4NewLERNS_16MSisDataProviderERxNS0_18TReadTypeBehaviourE @ 22 NONAME
	_ZN3Swi3Sis5CBlob5NewLCERNS_16MSisDataProviderERxNS0_18TReadTypeBehaviourE @ 23 NONAME
	_ZN3Swi3Sis5CBlobD0Ev @ 24 NONAME
	_ZN3Swi3Sis5CBlobD1Ev @ 25 NONAME
	_ZN3Swi3Sis5CBlobD2Ev @ 26 NONAME
	_ZN3Swi3Sis6Parser14CreateSisStubLER5RFileRNS_16MSisDataProviderE @ 27 NONAME
	_ZTIN3Swi3Sis5CBlobE @ 28 NONAME ; #<TI>#
	_ZTVN3Swi3Sis5CBlobE @ 29 NONAME ; #<VT>#
	_ZN3Swi3Sis9CContents9CheckCrcLEv @ 30 NONAME
	_ZN3Swi3Sis5CBlob4NewLERNS0_12TPtrProviderERxNS0_18TReadTypeBehaviourE @ 31 NONAME
	_ZN3Swi3Sis5CBlob5NewLCERNS0_12TPtrProviderERxNS0_18TReadTypeBehaviourE @ 32 NONAME

