Certificate:
    Data:
        Version: 3 (0x2)
        Serial Number: 1 (0x1)
        Signature Algorithm: md5WithRSAEncryption
        Issuer: O=Symbian Software Ltd, CN=Symbian Test - RSA
        Validity
            Not Before: Mar 21 15:34:46 2005 GMT
            Not After : Mar 19 15:34:46 2015 GMT
        Subject: O=Symbian, CN=Test
        Subject Public Key Info:
            Public Key Algorithm: rsaEncryption
            RSA Public Key: (512 bit)
                Modulus (512 bit):
                    00:d0:23:55:f9:ab:49:9f:ec:2d:36:61:5d:03:87:
                    36:84:2d:60:55:99:b6:25:3d:9b:06:6f:a7:21:91:
                    6b:93:52:74:21:fd:a4:db:85:b9:03:b3:f5:72:6b:
                    92:e8:b1:05:b4:58:02:3e:80:9c:2f:c6:4d:7f:8d:
                    8e:cf:70:f7:2d
                Exponent: 65537 (0x10001)
        X509v3 extensions:
            1.2.826.0.1.1796587.1.1.1.6: 
                ......
    Signature Algorithm: md5WithRSAEncryption
        60:2b:31:ff:00:c5:48:1a:60:b5:8b:0b:8b:ac:02:7c:4e:25:
        10:e5:1e:6b:d7:47:67:df:18:42:18:af:41:d9:44:8a:d5:d5:
        e1:a8:79:21:61:95:17:b2:0d:85:a3:9f:1b:d3:8f:37:21:69:
        5f:b5:10:a9:6b:4e:fc:62:5e:50:0f:54:b2:58:ae:f1:28:d2:
        b4:49:30:4b:0b:f9:4b:65:8c:92:70:fe:f2:4e:48:48:19:f5:
        22:76:35:15:b6:8e:76:55:9f:68:00:c7:a4:6b:08:a3:ae:a9:
        d6:fc:c1:fb:cf:bf:86:93:a7:a9:91:01:5e:2d:80:23:aa:1f:
        00:21
-----BEGIN CERTIFICATE-----
MIIBqTCCARKgAwIBAgIBATANBgkqhkiG9w0BAQQFADA8MR0wGwYDVQQKExRTeW1i
aWFuIFNvZnR3YXJlIEx0ZDEbMBkGA1UEAxMSU3ltYmlhbiBUZXN0IC0gUlNBMB4X
DTA1MDMyMTE1MzQ0NloXDTE1MDMxOTE1MzQ0NlowITEQMA4GA1UEChMHU3ltYmlh
bjENMAsGA1UEAxMEVGVzdDBcMA0GCSqGSIb3DQEBAQUAA0sAMEgCQQDQI1X5q0mf
7C02YV0DhzaELWBVmbYlPZsGb6chkWuTUnQh/aTbhbkDs/Vya5LosQW0WAI+gJwv
xk1/jY7PcPctAgMBAAGjGjAYMBYGDCqGOgAB7dNrAQEBBgQGAwQHAAOAMA0GCSqG
SIb3DQEBBAUAA4GBAGArMf8AxUgaYLWLC4usAnxOJRDlHmvXR2ffGEIYr0HZRIrV
1eGoeSFhlReyDYWjnxvTjzchaV+1EKlrTvxiXlAPVLJYrvEo0rRJMEsL+UtljJJw
/vJOSEgZ9SJ2NRW2jnZVn2gAx6RrCKOuqdb8wfvPv4aTp6mRAV4tgCOqHwAh
-----END CERTIFICATE-----
