EXPORTS
	??1CBlob@Sis@Swi@@UAE@XZ @ 1 NONAME ; Swi::Sis::CBlob::~CBlob(void)
	??1CCapabilities@Sis@Swi@@UAE@XZ @ 2 NONAME ; Swi::Sis::CCapabilities::~CCapabilities(void)
	??1CCertificateChain@Sis@Swi@@UAE@XZ @ 3 NONAME ; Swi::Sis::CCertificateChain::~CCertificateChain(void)
	??1CController@Sis@Swi@@UAE@XZ @ 4 NONAME ; Swi::Sis::CController::~CController(void)
	??1CDataIndex@Sis@Swi@@UAE@XZ @ 5 NONAME ; Swi::Sis::CDataIndex::~CDataIndex(void)
	??1CDate@Sis@Swi@@UAE@XZ @ 6 NONAME ; Swi::Sis::CDate::~CDate(void)
	??1CDateTime@Sis@Swi@@UAE@XZ @ 7 NONAME ; Swi::Sis::CDateTime::~CDateTime(void)
	??1CDependency@Sis@Swi@@UAE@XZ @ 8 NONAME ; Swi::Sis::CDependency::~CDependency(void)
	??1CElseIf@Sis@Swi@@UAE@XZ @ 9 NONAME ; Swi::Sis::CElseIf::~CElseIf(void)
	??1CExpression@Sis@Swi@@UAE@XZ @ 10 NONAME ; Swi::Sis::CExpression::~CExpression(void)
	??1CFileDescription@Sis@Swi@@UAE@XZ @ 11 NONAME ; Swi::Sis::CFileDescription::~CFileDescription(void)
	??1CHash@Sis@Swi@@UAE@XZ @ 12 NONAME ; Swi::Sis::CHash::~CHash(void)
	??1CIf@Sis@Swi@@UAE@XZ @ 13 NONAME ; Swi::Sis::CIf::~CIf(void)
	??1CInfo@Sis@Swi@@UAE@XZ @ 14 NONAME ; Swi::Sis::CInfo::~CInfo(void)
	??1CInstallBlock@Sis@Swi@@UAE@XZ @ 15 NONAME ; Swi::Sis::CInstallBlock::~CInstallBlock(void)
	??1CLanguage@Sis@Swi@@UAE@XZ @ 16 NONAME ; Swi::Sis::CLanguage::~CLanguage(void)
	??1CLogo@Sis@Swi@@UAE@XZ @ 17 NONAME ; Swi::Sis::CLogo::~CLogo(void)
	??1CPrerequisites@Sis@Swi@@UAE@XZ @ 18 NONAME ; Swi::Sis::CPrerequisites::~CPrerequisites(void)
	??1CProperties@Sis@Swi@@UAE@XZ @ 19 NONAME ; Swi::Sis::CProperties::~CProperties(void)
	??1CProperty@Sis@Swi@@UAE@XZ @ 20 NONAME ; Swi::Sis::CProperty::~CProperty(void)
	??1CSignature@Sis@Swi@@UAE@XZ @ 21 NONAME ; Swi::Sis::CSignature::~CSignature(void)
	??1CSignatureAlgorithm@Sis@Swi@@UAE@XZ @ 22 NONAME ; Swi::Sis::CSignatureAlgorithm::~CSignatureAlgorithm(void)
	??1CSignatureCertificateChain@Sis@Swi@@UAE@XZ @ 23 NONAME ; Swi::Sis::CSignatureCertificateChain::~CSignatureCertificateChain(void)
	??1CString@Sis@Swi@@UAE@XZ @ 24 NONAME ; Swi::Sis::CString::~CString(void)
	??1CSupportedLanguages@Sis@Swi@@UAE@XZ @ 25 NONAME ; Swi::Sis::CSupportedLanguages::~CSupportedLanguages(void)
	??1CSupportedOption@Sis@Swi@@UAE@XZ @ 26 NONAME ; Swi::Sis::CSupportedOption::~CSupportedOption(void)
	??1CSupportedOptions@Sis@Swi@@UAE@XZ @ 27 NONAME ; Swi::Sis::CSupportedOptions::~CSupportedOptions(void)
	??1CTime@Sis@Swi@@UAE@XZ @ 28 NONAME ; Swi::Sis::CTime::~CTime(void)
	??1CUid@Sis@Swi@@UAE@XZ @ 29 NONAME ; Swi::Sis::CUid::~CUid(void)
	??1CVersion@Sis@Swi@@UAE@XZ @ 30 NONAME ; Swi::Sis::CVersion::~CVersion(void)
	??1CVersionRange@Sis@Swi@@UAE@XZ @ 31 NONAME ; Swi::Sis::CVersionRange::~CVersionRange(void)
	?Length@CField@Sis@Swi@@QBE_JXZ @ 32 NONAME ; long long Swi::Sis::CField::Length(void) const
	?NewL@CBlob@Sis@Swi@@SAPAV123@AAVMSisDataProvider@3@AA_JW4TReadTypeBehaviour@23@@Z @ 33 NONAME ; class Swi::Sis::CBlob * Swi::Sis::CBlob::NewL(class Swi::MSisDataProvider &, long long &, enum Swi::Sis::TReadTypeBehaviour)
	?NewL@CCapabilities@Sis@Swi@@SAPAV123@AAVMSisDataProvider@3@AA_JW4TReadTypeBehaviour@23@@Z @ 34 NONAME ; class Swi::Sis::CCapabilities * Swi::Sis::CCapabilities::NewL(class Swi::MSisDataProvider &, long long &, enum Swi::Sis::TReadTypeBehaviour)
	?NewL@CCertificateChain@Sis@Swi@@SAPAV123@AAVMSisDataProvider@3@AA_JW4TReadTypeBehaviour@23@@Z @ 35 NONAME ; class Swi::Sis::CCertificateChain * Swi::Sis::CCertificateChain::NewL(class Swi::MSisDataProvider &, long long &, enum Swi::Sis::TReadTypeBehaviour)
	?NewL@CController@Sis@Swi@@SAPAV123@AAVMSisDataProvider@3@AA_JW4TReadTypeBehaviour@23@@Z @ 36 NONAME ; class Swi::Sis::CController * Swi::Sis::CController::NewL(class Swi::MSisDataProvider &, long long &, enum Swi::Sis::TReadTypeBehaviour)
	?NewL@CController@Sis@Swi@@SAPAV123@AAVMSisDataProvider@3@W4TReadTypeBehaviour@23@@Z @ 37 NONAME ; class Swi::Sis::CController * Swi::Sis::CController::NewL(class Swi::MSisDataProvider &, enum Swi::Sis::TReadTypeBehaviour)
	?NewL@CDataIndex@Sis@Swi@@SAPAV123@AAVMSisDataProvider@3@AA_JW4TReadTypeBehaviour@23@@Z @ 38 NONAME ; class Swi::Sis::CDataIndex * Swi::Sis::CDataIndex::NewL(class Swi::MSisDataProvider &, long long &, enum Swi::Sis::TReadTypeBehaviour)
	?NewL@CDate@Sis@Swi@@SAPAV123@AAVMSisDataProvider@3@AA_JW4TReadTypeBehaviour@23@@Z @ 39 NONAME ; class Swi::Sis::CDate * Swi::Sis::CDate::NewL(class Swi::MSisDataProvider &, long long &, enum Swi::Sis::TReadTypeBehaviour)
	?NewL@CDateTime@Sis@Swi@@SAPAV123@AAVMSisDataProvider@3@AA_JW4TReadTypeBehaviour@23@@Z @ 40 NONAME ; class Swi::Sis::CDateTime * Swi::Sis::CDateTime::NewL(class Swi::MSisDataProvider &, long long &, enum Swi::Sis::TReadTypeBehaviour)
	?NewL@CDependency@Sis@Swi@@SAPAV123@AAVMSisDataProvider@3@AA_JW4TReadTypeBehaviour@23@@Z @ 41 NONAME ; class Swi::Sis::CDependency * Swi::Sis::CDependency::NewL(class Swi::MSisDataProvider &, long long &, enum Swi::Sis::TReadTypeBehaviour)
	?NewL@CElseIf@Sis@Swi@@SAPAV123@AAVMSisDataProvider@3@AA_JW4TReadTypeBehaviour@23@@Z @ 42 NONAME ; class Swi::Sis::CElseIf * Swi::Sis::CElseIf::NewL(class Swi::MSisDataProvider &, long long &, enum Swi::Sis::TReadTypeBehaviour)
	?NewL@CExpression@Sis@Swi@@SAPAV123@AAVMSisDataProvider@3@AA_JW4TReadTypeBehaviour@23@@Z @ 43 NONAME ; class Swi::Sis::CExpression * Swi::Sis::CExpression::NewL(class Swi::MSisDataProvider &, long long &, enum Swi::Sis::TReadTypeBehaviour)
	?NewL@CFileDescription@Sis@Swi@@SAPAV123@AAVMSisDataProvider@3@AA_JW4TReadTypeBehaviour@23@@Z @ 44 NONAME ; class Swi::Sis::CFileDescription * Swi::Sis::CFileDescription::NewL(class Swi::MSisDataProvider &, long long &, enum Swi::Sis::TReadTypeBehaviour)
	?NewL@CHash@Sis@Swi@@SAPAV123@AAVMSisDataProvider@3@AA_JW4TReadTypeBehaviour@23@@Z @ 45 NONAME ; class Swi::Sis::CHash * Swi::Sis::CHash::NewL(class Swi::MSisDataProvider &, long long &, enum Swi::Sis::TReadTypeBehaviour)
	?NewL@CIf@Sis@Swi@@SAPAV123@AAVMSisDataProvider@3@AA_JW4TReadTypeBehaviour@23@@Z @ 46 NONAME ; class Swi::Sis::CIf * Swi::Sis::CIf::NewL(class Swi::MSisDataProvider &, long long &, enum Swi::Sis::TReadTypeBehaviour)
	?NewL@CInfo@Sis@Swi@@SAPAV123@AAVMSisDataProvider@3@AA_JW4TReadTypeBehaviour@23@@Z @ 47 NONAME ; class Swi::Sis::CInfo * Swi::Sis::CInfo::NewL(class Swi::MSisDataProvider &, long long &, enum Swi::Sis::TReadTypeBehaviour)
	?NewL@CInstallBlock@Sis@Swi@@SAPAV123@AAVMSisDataProvider@3@AA_JW4TReadTypeBehaviour@23@@Z @ 48 NONAME ; class Swi::Sis::CInstallBlock * Swi::Sis::CInstallBlock::NewL(class Swi::MSisDataProvider &, long long &, enum Swi::Sis::TReadTypeBehaviour)
	?NewL@CLanguage@Sis@Swi@@SAPAV123@AAVMSisDataProvider@3@AA_JW4TReadTypeBehaviour@23@@Z @ 49 NONAME ; class Swi::Sis::CLanguage * Swi::Sis::CLanguage::NewL(class Swi::MSisDataProvider &, long long &, enum Swi::Sis::TReadTypeBehaviour)
	?NewL@CLogo@Sis@Swi@@SAPAV123@AAVMSisDataProvider@3@AA_JW4TReadTypeBehaviour@23@@Z @ 50 NONAME ; class Swi::Sis::CLogo * Swi::Sis::CLogo::NewL(class Swi::MSisDataProvider &, long long &, enum Swi::Sis::TReadTypeBehaviour)
	?NewL@CPrerequisites@Sis@Swi@@SAPAV123@AAVMSisDataProvider@3@AA_JW4TReadTypeBehaviour@23@@Z @ 51 NONAME ; class Swi::Sis::CPrerequisites * Swi::Sis::CPrerequisites::NewL(class Swi::MSisDataProvider &, long long &, enum Swi::Sis::TReadTypeBehaviour)
	?NewL@CProperties@Sis@Swi@@SAPAV123@AAVMSisDataProvider@3@AA_JW4TReadTypeBehaviour@23@@Z @ 52 NONAME ; class Swi::Sis::CProperties * Swi::Sis::CProperties::NewL(class Swi::MSisDataProvider &, long long &, enum Swi::Sis::TReadTypeBehaviour)
	?NewL@CProperty@Sis@Swi@@SAPAV123@AAVMSisDataProvider@3@AA_JW4TReadTypeBehaviour@23@@Z @ 53 NONAME ; class Swi::Sis::CProperty * Swi::Sis::CProperty::NewL(class Swi::MSisDataProvider &, long long &, enum Swi::Sis::TReadTypeBehaviour)
	?NewL@CSignature@Sis@Swi@@SAPAV123@AAVMSisDataProvider@3@AA_JW4TReadTypeBehaviour@23@@Z @ 54 NONAME ; class Swi::Sis::CSignature * Swi::Sis::CSignature::NewL(class Swi::MSisDataProvider &, long long &, enum Swi::Sis::TReadTypeBehaviour)
	?NewL@CSignatureAlgorithm@Sis@Swi@@SAPAV123@AAVMSisDataProvider@3@AA_JW4TReadTypeBehaviour@23@@Z @ 55 NONAME ; class Swi::Sis::CSignatureAlgorithm * Swi::Sis::CSignatureAlgorithm::NewL(class Swi::MSisDataProvider &, long long &, enum Swi::Sis::TReadTypeBehaviour)
	?NewL@CSignatureCertificateChain@Sis@Swi@@SAPAV123@AAVMSisDataProvider@3@AA_JW4TReadTypeBehaviour@23@@Z @ 56 NONAME ; class Swi::Sis::CSignatureCertificateChain * Swi::Sis::CSignatureCertificateChain::NewL(class Swi::MSisDataProvider &, long long &, enum Swi::Sis::TReadTypeBehaviour)
	?NewL@CString@Sis@Swi@@SAPAV123@AAVMSisDataProvider@3@AA_JW4TReadTypeBehaviour@23@@Z @ 57 NONAME ; class Swi::Sis::CString * Swi::Sis::CString::NewL(class Swi::MSisDataProvider &, long long &, enum Swi::Sis::TReadTypeBehaviour)
	?NewL@CSupportedLanguages@Sis@Swi@@SAPAV123@AAVMSisDataProvider@3@AA_JW4TReadTypeBehaviour@23@@Z @ 58 NONAME ; class Swi::Sis::CSupportedLanguages * Swi::Sis::CSupportedLanguages::NewL(class Swi::MSisDataProvider &, long long &, enum Swi::Sis::TReadTypeBehaviour)
	?NewL@CSupportedOption@Sis@Swi@@SAPAV123@AAVMSisDataProvider@3@AA_JW4TReadTypeBehaviour@23@@Z @ 59 NONAME ; class Swi::Sis::CSupportedOption * Swi::Sis::CSupportedOption::NewL(class Swi::MSisDataProvider &, long long &, enum Swi::Sis::TReadTypeBehaviour)
	?NewL@CSupportedOptions@Sis@Swi@@SAPAV123@AAVMSisDataProvider@3@AA_JW4TReadTypeBehaviour@23@@Z @ 60 NONAME ; class Swi::Sis::CSupportedOptions * Swi::Sis::CSupportedOptions::NewL(class Swi::MSisDataProvider &, long long &, enum Swi::Sis::TReadTypeBehaviour)
	?NewL@CTime@Sis@Swi@@SAPAV123@AAVMSisDataProvider@3@AA_JW4TReadTypeBehaviour@23@@Z @ 61 NONAME ; class Swi::Sis::CTime * Swi::Sis::CTime::NewL(class Swi::MSisDataProvider &, long long &, enum Swi::Sis::TReadTypeBehaviour)
	?NewL@CUid@Sis@Swi@@SAPAV123@AAVMSisDataProvider@3@AA_JW4TReadTypeBehaviour@23@@Z @ 62 NONAME ; class Swi::Sis::CUid * Swi::Sis::CUid::NewL(class Swi::MSisDataProvider &, long long &, enum Swi::Sis::TReadTypeBehaviour)
	?NewL@CVersion@Sis@Swi@@SAPAV123@AAVMSisDataProvider@3@AA_JW4TReadTypeBehaviour@23@@Z @ 63 NONAME ; class Swi::Sis::CVersion * Swi::Sis::CVersion::NewL(class Swi::MSisDataProvider &, long long &, enum Swi::Sis::TReadTypeBehaviour)
	?NewL@CVersionRange@Sis@Swi@@SAPAV123@AAVMSisDataProvider@3@AA_JW4TReadTypeBehaviour@23@@Z @ 64 NONAME ; class Swi::Sis::CVersionRange * Swi::Sis::CVersionRange::NewL(class Swi::MSisDataProvider &, long long &, enum Swi::Sis::TReadTypeBehaviour)
	?NewLC@CBlob@Sis@Swi@@SAPAV123@AAVMSisDataProvider@3@AA_JW4TReadTypeBehaviour@23@@Z @ 65 NONAME ; class Swi::Sis::CBlob * Swi::Sis::CBlob::NewLC(class Swi::MSisDataProvider &, long long &, enum Swi::Sis::TReadTypeBehaviour)
	?NewLC@CCapabilities@Sis@Swi@@SAPAV123@AAVMSisDataProvider@3@AA_JW4TReadTypeBehaviour@23@@Z @ 66 NONAME ; class Swi::Sis::CCapabilities * Swi::Sis::CCapabilities::NewLC(class Swi::MSisDataProvider &, long long &, enum Swi::Sis::TReadTypeBehaviour)
	?NewLC@CCertificateChain@Sis@Swi@@SAPAV123@AAVMSisDataProvider@3@AA_JW4TReadTypeBehaviour@23@@Z @ 67 NONAME ; class Swi::Sis::CCertificateChain * Swi::Sis::CCertificateChain::NewLC(class Swi::MSisDataProvider &, long long &, enum Swi::Sis::TReadTypeBehaviour)
	?NewLC@CController@Sis@Swi@@SAPAV123@AAVMSisDataProvider@3@AA_JW4TReadTypeBehaviour@23@@Z @ 68 NONAME ; class Swi::Sis::CController * Swi::Sis::CController::NewLC(class Swi::MSisDataProvider &, long long &, enum Swi::Sis::TReadTypeBehaviour)
	?NewLC@CController@Sis@Swi@@SAPAV123@AAVMSisDataProvider@3@W4TReadTypeBehaviour@23@@Z @ 69 NONAME ; class Swi::Sis::CController * Swi::Sis::CController::NewLC(class Swi::MSisDataProvider &, enum Swi::Sis::TReadTypeBehaviour)
	?NewLC@CDataIndex@Sis@Swi@@SAPAV123@AAVMSisDataProvider@3@AA_JW4TReadTypeBehaviour@23@@Z @ 70 NONAME ; class Swi::Sis::CDataIndex * Swi::Sis::CDataIndex::NewLC(class Swi::MSisDataProvider &, long long &, enum Swi::Sis::TReadTypeBehaviour)
	?NewLC@CDate@Sis@Swi@@SAPAV123@AAVMSisDataProvider@3@AA_JW4TReadTypeBehaviour@23@@Z @ 71 NONAME ; class Swi::Sis::CDate * Swi::Sis::CDate::NewLC(class Swi::MSisDataProvider &, long long &, enum Swi::Sis::TReadTypeBehaviour)
	?NewLC@CDateTime@Sis@Swi@@SAPAV123@AAVMSisDataProvider@3@AA_JW4TReadTypeBehaviour@23@@Z @ 72 NONAME ; class Swi::Sis::CDateTime * Swi::Sis::CDateTime::NewLC(class Swi::MSisDataProvider &, long long &, enum Swi::Sis::TReadTypeBehaviour)
	?NewLC@CDependency@Sis@Swi@@SAPAV123@AAVMSisDataProvider@3@AA_JW4TReadTypeBehaviour@23@@Z @ 73 NONAME ; class Swi::Sis::CDependency * Swi::Sis::CDependency::NewLC(class Swi::MSisDataProvider &, long long &, enum Swi::Sis::TReadTypeBehaviour)
	?NewLC@CElseIf@Sis@Swi@@SAPAV123@AAVMSisDataProvider@3@AA_JW4TReadTypeBehaviour@23@@Z @ 74 NONAME ; class Swi::Sis::CElseIf * Swi::Sis::CElseIf::NewLC(class Swi::MSisDataProvider &, long long &, enum Swi::Sis::TReadTypeBehaviour)
	?NewLC@CExpression@Sis@Swi@@SAPAV123@AAVMSisDataProvider@3@AA_JW4TReadTypeBehaviour@23@@Z @ 75 NONAME ; class Swi::Sis::CExpression * Swi::Sis::CExpression::NewLC(class Swi::MSisDataProvider &, long long &, enum Swi::Sis::TReadTypeBehaviour)
	?NewLC@CFileDescription@Sis@Swi@@SAPAV123@AAVMSisDataProvider@3@AA_JW4TReadTypeBehaviour@23@@Z @ 76 NONAME ; class Swi::Sis::CFileDescription * Swi::Sis::CFileDescription::NewLC(class Swi::MSisDataProvider &, long long &, enum Swi::Sis::TReadTypeBehaviour)
	?NewLC@CHash@Sis@Swi@@SAPAV123@AAVMSisDataProvider@3@AA_JW4TReadTypeBehaviour@23@@Z @ 77 NONAME ; class Swi::Sis::CHash * Swi::Sis::CHash::NewLC(class Swi::MSisDataProvider &, long long &, enum Swi::Sis::TReadTypeBehaviour)
	?NewLC@CIf@Sis@Swi@@SAPAV123@AAVMSisDataProvider@3@AA_JW4TReadTypeBehaviour@23@@Z @ 78 NONAME ; class Swi::Sis::CIf * Swi::Sis::CIf::NewLC(class Swi::MSisDataProvider &, long long &, enum Swi::Sis::TReadTypeBehaviour)
	?NewLC@CInfo@Sis@Swi@@SAPAV123@AAVMSisDataProvider@3@AA_JW4TReadTypeBehaviour@23@@Z @ 79 NONAME ; class Swi::Sis::CInfo * Swi::Sis::CInfo::NewLC(class Swi::MSisDataProvider &, long long &, enum Swi::Sis::TReadTypeBehaviour)
	?NewLC@CInstallBlock@Sis@Swi@@SAPAV123@AAVMSisDataProvider@3@AA_JW4TReadTypeBehaviour@23@@Z @ 80 NONAME ; class Swi::Sis::CInstallBlock * Swi::Sis::CInstallBlock::NewLC(class Swi::MSisDataProvider &, long long &, enum Swi::Sis::TReadTypeBehaviour)
	?NewLC@CLanguage@Sis@Swi@@SAPAV123@AAVMSisDataProvider@3@AA_JW4TReadTypeBehaviour@23@@Z @ 81 NONAME ; class Swi::Sis::CLanguage * Swi::Sis::CLanguage::NewLC(class Swi::MSisDataProvider &, long long &, enum Swi::Sis::TReadTypeBehaviour)
	?NewLC@CLogo@Sis@Swi@@SAPAV123@AAVMSisDataProvider@3@AA_JW4TReadTypeBehaviour@23@@Z @ 82 NONAME ; class Swi::Sis::CLogo * Swi::Sis::CLogo::NewLC(class Swi::MSisDataProvider &, long long &, enum Swi::Sis::TReadTypeBehaviour)
	?NewLC@CPrerequisites@Sis@Swi@@SAPAV123@AAVMSisDataProvider@3@AA_JW4TReadTypeBehaviour@23@@Z @ 83 NONAME ; class Swi::Sis::CPrerequisites * Swi::Sis::CPrerequisites::NewLC(class Swi::MSisDataProvider &, long long &, enum Swi::Sis::TReadTypeBehaviour)
	?NewLC@CProperties@Sis@Swi@@SAPAV123@AAVMSisDataProvider@3@AA_JW4TReadTypeBehaviour@23@@Z @ 84 NONAME ; class Swi::Sis::CProperties * Swi::Sis::CProperties::NewLC(class Swi::MSisDataProvider &, long long &, enum Swi::Sis::TReadTypeBehaviour)
	?NewLC@CProperty@Sis@Swi@@SAPAV123@AAVMSisDataProvider@3@AA_JW4TReadTypeBehaviour@23@@Z @ 85 NONAME ; class Swi::Sis::CProperty * Swi::Sis::CProperty::NewLC(class Swi::MSisDataProvider &, long long &, enum Swi::Sis::TReadTypeBehaviour)
	?NewLC@CSignature@Sis@Swi@@SAPAV123@AAVMSisDataProvider@3@AA_JW4TReadTypeBehaviour@23@@Z @ 86 NONAME ; class Swi::Sis::CSignature * Swi::Sis::CSignature::NewLC(class Swi::MSisDataProvider &, long long &, enum Swi::Sis::TReadTypeBehaviour)
	?NewLC@CSignatureAlgorithm@Sis@Swi@@SAPAV123@AAVMSisDataProvider@3@AA_JW4TReadTypeBehaviour@23@@Z @ 87 NONAME ; class Swi::Sis::CSignatureAlgorithm * Swi::Sis::CSignatureAlgorithm::NewLC(class Swi::MSisDataProvider &, long long &, enum Swi::Sis::TReadTypeBehaviour)
	?NewLC@CSignatureCertificateChain@Sis@Swi@@SAPAV123@AAVMSisDataProvider@3@AA_JW4TReadTypeBehaviour@23@@Z @ 88 NONAME ; class Swi::Sis::CSignatureCertificateChain * Swi::Sis::CSignatureCertificateChain::NewLC(class Swi::MSisDataProvider &, long long &, enum Swi::Sis::TReadTypeBehaviour)
	?NewLC@CString@Sis@Swi@@SAPAV123@AAVMSisDataProvider@3@AA_JW4TReadTypeBehaviour@23@@Z @ 89 NONAME ; class Swi::Sis::CString * Swi::Sis::CString::NewLC(class Swi::MSisDataProvider &, long long &, enum Swi::Sis::TReadTypeBehaviour)
	?NewLC@CSupportedLanguages@Sis@Swi@@SAPAV123@AAVMSisDataProvider@3@AA_JW4TReadTypeBehaviour@23@@Z @ 90 NONAME ; class Swi::Sis::CSupportedLanguages * Swi::Sis::CSupportedLanguages::NewLC(class Swi::MSisDataProvider &, long long &, enum Swi::Sis::TReadTypeBehaviour)
	?NewLC@CSupportedOption@Sis@Swi@@SAPAV123@AAVMSisDataProvider@3@AA_JW4TReadTypeBehaviour@23@@Z @ 91 NONAME ; class Swi::Sis::CSupportedOption * Swi::Sis::CSupportedOption::NewLC(class Swi::MSisDataProvider &, long long &, enum Swi::Sis::TReadTypeBehaviour)
	?NewLC@CSupportedOptions@Sis@Swi@@SAPAV123@AAVMSisDataProvider@3@AA_JW4TReadTypeBehaviour@23@@Z @ 92 NONAME ; class Swi::Sis::CSupportedOptions * Swi::Sis::CSupportedOptions::NewLC(class Swi::MSisDataProvider &, long long &, enum Swi::Sis::TReadTypeBehaviour)
	?NewLC@CTime@Sis@Swi@@SAPAV123@AAVMSisDataProvider@3@AA_JW4TReadTypeBehaviour@23@@Z @ 93 NONAME ; class Swi::Sis::CTime * Swi::Sis::CTime::NewLC(class Swi::MSisDataProvider &, long long &, enum Swi::Sis::TReadTypeBehaviour)
	?NewLC@CUid@Sis@Swi@@SAPAV123@AAVMSisDataProvider@3@AA_JW4TReadTypeBehaviour@23@@Z @ 94 NONAME ; class Swi::Sis::CUid * Swi::Sis::CUid::NewLC(class Swi::MSisDataProvider &, long long &, enum Swi::Sis::TReadTypeBehaviour)
	?NewLC@CVersion@Sis@Swi@@SAPAV123@AAVMSisDataProvider@3@AA_JW4TReadTypeBehaviour@23@@Z @ 95 NONAME ; class Swi::Sis::CVersion * Swi::Sis::CVersion::NewLC(class Swi::MSisDataProvider &, long long &, enum Swi::Sis::TReadTypeBehaviour)
	?NewLC@CVersionRange@Sis@Swi@@SAPAV123@AAVMSisDataProvider@3@AA_JW4TReadTypeBehaviour@23@@Z @ 96 NONAME ; class Swi::Sis::CVersionRange * Swi::Sis::CVersionRange::NewLC(class Swi::MSisDataProvider &, long long &, enum Swi::Sis::TReadTypeBehaviour)
	??0TSisTrustStatus@Swi@@QAE@W4TValidationStatus@1@W4TRevocationStatus@1@VTTime@@2@Z @ 97 NONAME ; Swi::TSisTrustStatus::TSisTrustStatus(enum Swi::TValidationStatus, enum Swi::TRevocationStatus, class TTime, class TTime)
	??0TSisTrustStatus@Swi@@QAE@XZ @ 98 NONAME ; Swi::TSisTrustStatus::TSisTrustStatus(void)
	?AddChainIndex@CController@Sis@Swi@@QBEXH@Z @ 99 NONAME ; void Swi::Sis::CController::AddChainIndex(int) const
	?ClearCertChainIndices@CController@Sis@Swi@@QBEXXZ @ 100 NONAME ; void Swi::Sis::CController::ClearCertChainIndices(void) const
	?ExternalizeL@TSisTrustStatus@Swi@@QBEXAAVRWriteStream@@@Z @ 101 NONAME ; void Swi::TSisTrustStatus::ExternalizeL(class RWriteStream &) const
	?InternalizeL@TSisTrustStatus@Swi@@QAEXAAVRReadStream@@@Z @ 102 NONAME ; void Swi::TSisTrustStatus::InternalizeL(class RReadStream &)
	?IsTrusted@TSisTrustStatus@Swi@@QBEHXZ @ 103 NONAME ; int Swi::TSisTrustStatus::IsTrusted(void) const
	?SetCertChainConstraints@CController@Sis@Swi@@QAEXPAVCCertChainConstraints@3@@Z @ 104 NONAME ; void Swi::Sis::CController::SetCertChainConstraints(class Swi::CCertChainConstraints *)
	?NewL@CController@Sis@Swi@@SAPAV123@AAVTPtrProvider@23@W4TReadTypeBehaviour@23@@Z @ 105 NONAME ; class Swi::Sis::CController * Swi::Sis::CController::NewL(class Swi::Sis::TPtrProvider &, enum Swi::Sis::TReadTypeBehaviour)
	?NewL@CInfo@Sis@Swi@@SAPAV123@AAVTPtrProvider@23@AA_JW4TReadTypeBehaviour@23@@Z @ 106 NONAME ; class Swi::Sis::CInfo * Swi::Sis::CInfo::NewL(class Swi::Sis::TPtrProvider &, long long &, enum Swi::Sis::TReadTypeBehaviour)
	?NewL@CUid@Sis@Swi@@SAPAV123@AAVTPtrProvider@23@AA_JW4TReadTypeBehaviour@23@@Z @ 107 NONAME ; class Swi::Sis::CUid * Swi::Sis::CUid::NewL(class Swi::Sis::TPtrProvider &, long long &, enum Swi::Sis::TReadTypeBehaviour)
	?NewLC@CController@Sis@Swi@@SAPAV123@AAVTPtrProvider@23@W4TReadTypeBehaviour@23@@Z @ 108 NONAME ; class Swi::Sis::CController * Swi::Sis::CController::NewLC(class Swi::Sis::TPtrProvider &, enum Swi::Sis::TReadTypeBehaviour)
	?NewLC@CInfo@Sis@Swi@@SAPAV123@AAVTPtrProvider@23@AA_JW4TReadTypeBehaviour@23@@Z @ 109 NONAME ; class Swi::Sis::CInfo * Swi::Sis::CInfo::NewLC(class Swi::Sis::TPtrProvider &, long long &, enum Swi::Sis::TReadTypeBehaviour)
	?NewLC@CUid@Sis@Swi@@SAPAV123@AAVTPtrProvider@23@AA_JW4TReadTypeBehaviour@23@@Z @ 110 NONAME ; class Swi::Sis::CUid * Swi::Sis::CUid::NewLC(class Swi::Sis::TPtrProvider &, long long &, enum Swi::Sis::TReadTypeBehaviour)
	?NewL@CString@Sis@Swi@@SAPAV123@AAVTPtrProvider@23@AA_JW4TReadTypeBehaviour@23@@Z @ 111 NONAME ; class Swi::Sis::CString * Swi::Sis::CString::NewL(class Swi::Sis::TPtrProvider &, long long &, enum Swi::Sis::TReadTypeBehaviour)
	?NewLC@CString@Sis@Swi@@SAPAV123@AAVTPtrProvider@23@AA_JW4TReadTypeBehaviour@23@@Z @ 112 NONAME ; class Swi::Sis::CString * Swi::Sis::CString::NewLC(class Swi::Sis::TPtrProvider &, long long &, enum Swi::Sis::TReadTypeBehaviour)
	?NewL@CDate@Sis@Swi@@SAPAV123@AAVTPtrProvider@23@AA_JW4TReadTypeBehaviour@23@@Z @ 113 NONAME ; class Swi::Sis::CDate * Swi::Sis::CDate::NewL(class Swi::Sis::TPtrProvider &, long long &, enum Swi::Sis::TReadTypeBehaviour)
	?NewL@CDateTime@Sis@Swi@@SAPAV123@AAVTPtrProvider@23@AA_JW4TReadTypeBehaviour@23@@Z @ 114 NONAME ; class Swi::Sis::CDateTime * Swi::Sis::CDateTime::NewL(class Swi::Sis::TPtrProvider &, long long &, enum Swi::Sis::TReadTypeBehaviour)
	?NewL@CTime@Sis@Swi@@SAPAV123@AAVTPtrProvider@23@AA_JW4TReadTypeBehaviour@23@@Z @ 115 NONAME ; class Swi::Sis::CTime * Swi::Sis::CTime::NewL(class Swi::Sis::TPtrProvider &, long long &, enum Swi::Sis::TReadTypeBehaviour)
	?NewL@CVersion@Sis@Swi@@SAPAV123@AAVTPtrProvider@23@AA_JW4TReadTypeBehaviour@23@@Z @ 116 NONAME ; class Swi::Sis::CVersion * Swi::Sis::CVersion::NewL(class Swi::Sis::TPtrProvider &, long long &, enum Swi::Sis::TReadTypeBehaviour)
	?NewLC@CDate@Sis@Swi@@SAPAV123@AAVTPtrProvider@23@AA_JW4TReadTypeBehaviour@23@@Z @ 117 NONAME ; class Swi::Sis::CDate * Swi::Sis::CDate::NewLC(class Swi::Sis::TPtrProvider &, long long &, enum Swi::Sis::TReadTypeBehaviour)
	?NewLC@CDateTime@Sis@Swi@@SAPAV123@AAVTPtrProvider@23@AA_JW4TReadTypeBehaviour@23@@Z @ 118 NONAME ; class Swi::Sis::CDateTime * Swi::Sis::CDateTime::NewLC(class Swi::Sis::TPtrProvider &, long long &, enum Swi::Sis::TReadTypeBehaviour)
	?NewLC@CTime@Sis@Swi@@SAPAV123@AAVTPtrProvider@23@AA_JW4TReadTypeBehaviour@23@@Z @ 119 NONAME ; class Swi::Sis::CTime * Swi::Sis::CTime::NewLC(class Swi::Sis::TPtrProvider &, long long &, enum Swi::Sis::TReadTypeBehaviour)
	?NewLC@CVersion@Sis@Swi@@SAPAV123@AAVTPtrProvider@23@AA_JW4TReadTypeBehaviour@23@@Z @ 120 NONAME ; class Swi::Sis::CVersion * Swi::Sis::CVersion::NewLC(class Swi::Sis::TPtrProvider &, long long &, enum Swi::Sis::TReadTypeBehaviour)
	?NewL@CSupportedOption@Sis@Swi@@SAPAV123@AAVTPtrProvider@23@AA_JW4TReadTypeBehaviour@23@@Z @ 121 NONAME ; class Swi::Sis::CSupportedOption * Swi::Sis::CSupportedOption::NewL(class Swi::Sis::TPtrProvider &, long long &, enum Swi::Sis::TReadTypeBehaviour)
	?NewL@CSupportedOptions@Sis@Swi@@SAPAV123@AAVTPtrProvider@23@AA_JW4TReadTypeBehaviour@23@@Z @ 122 NONAME ; class Swi::Sis::CSupportedOptions * Swi::Sis::CSupportedOptions::NewL(class Swi::Sis::TPtrProvider &, long long &, enum Swi::Sis::TReadTypeBehaviour)
	?NewLC@CSupportedOption@Sis@Swi@@SAPAV123@AAVTPtrProvider@23@AA_JW4TReadTypeBehaviour@23@@Z @ 123 NONAME ; class Swi::Sis::CSupportedOption * Swi::Sis::CSupportedOption::NewLC(class Swi::Sis::TPtrProvider &, long long &, enum Swi::Sis::TReadTypeBehaviour)
	?NewLC@CSupportedOptions@Sis@Swi@@SAPAV123@AAVTPtrProvider@23@AA_JW4TReadTypeBehaviour@23@@Z @ 124 NONAME ; class Swi::Sis::CSupportedOptions * Swi::Sis::CSupportedOptions::NewLC(class Swi::Sis::TPtrProvider &, long long &, enum Swi::Sis::TReadTypeBehaviour)
	?NewL@CBlob@Sis@Swi@@SAPAV123@AAVTPtrProvider@23@AA_JW4TReadTypeBehaviour@23@@Z @ 125 NONAME ; class Swi::Sis::CBlob * Swi::Sis::CBlob::NewL(class Swi::Sis::TPtrProvider &, long long &, enum Swi::Sis::TReadTypeBehaviour)
	?NewL@CCapabilities@Sis@Swi@@SAPAV123@AAVTPtrProvider@23@AA_JW4TReadTypeBehaviour@23@@Z @ 126 NONAME ; class Swi::Sis::CCapabilities * Swi::Sis::CCapabilities::NewL(class Swi::Sis::TPtrProvider &, long long &, enum Swi::Sis::TReadTypeBehaviour)
	?NewL@CCertificateChain@Sis@Swi@@SAPAV123@AAVTPtrProvider@23@AA_JW4TReadTypeBehaviour@23@@Z @ 127 NONAME ; class Swi::Sis::CCertificateChain * Swi::Sis::CCertificateChain::NewL(class Swi::Sis::TPtrProvider &, long long &, enum Swi::Sis::TReadTypeBehaviour)
	?NewL@CController@Sis@Swi@@SAPAV123@AAVTPtrProvider@23@AA_JW4TReadTypeBehaviour@23@@Z @ 128 NONAME ; class Swi::Sis::CController * Swi::Sis::CController::NewL(class Swi::Sis::TPtrProvider &, long long &, enum Swi::Sis::TReadTypeBehaviour)
	?NewL@CDataIndex@Sis@Swi@@SAPAV123@AAVTPtrProvider@23@AA_JW4TReadTypeBehaviour@23@@Z @ 129 NONAME ; class Swi::Sis::CDataIndex * Swi::Sis::CDataIndex::NewL(class Swi::Sis::TPtrProvider &, long long &, enum Swi::Sis::TReadTypeBehaviour)
	?NewL@CDependency@Sis@Swi@@SAPAV123@AAVTPtrProvider@23@AA_JW4TReadTypeBehaviour@23@@Z @ 130 NONAME ; class Swi::Sis::CDependency * Swi::Sis::CDependency::NewL(class Swi::Sis::TPtrProvider &, long long &, enum Swi::Sis::TReadTypeBehaviour)
	?NewL@CElseIf@Sis@Swi@@SAPAV123@AAVTPtrProvider@23@AA_JW4TReadTypeBehaviour@23@@Z @ 131 NONAME ; class Swi::Sis::CElseIf * Swi::Sis::CElseIf::NewL(class Swi::Sis::TPtrProvider &, long long &, enum Swi::Sis::TReadTypeBehaviour)
	?NewL@CExpression@Sis@Swi@@SAPAV123@AAVTPtrProvider@23@AA_JW4TReadTypeBehaviour@23@@Z @ 132 NONAME ; class Swi::Sis::CExpression * Swi::Sis::CExpression::NewL(class Swi::Sis::TPtrProvider &, long long &, enum Swi::Sis::TReadTypeBehaviour)
	?NewL@CFileDescription@Sis@Swi@@SAPAV123@AAVTPtrProvider@23@AA_JW4TReadTypeBehaviour@23@@Z @ 133 NONAME ; class Swi::Sis::CFileDescription * Swi::Sis::CFileDescription::NewL(class Swi::Sis::TPtrProvider &, long long &, enum Swi::Sis::TReadTypeBehaviour)
	?NewL@CHash@Sis@Swi@@SAPAV123@AAVTPtrProvider@23@AA_JW4TReadTypeBehaviour@23@@Z @ 134 NONAME ; class Swi::Sis::CHash * Swi::Sis::CHash::NewL(class Swi::Sis::TPtrProvider &, long long &, enum Swi::Sis::TReadTypeBehaviour)
	?NewL@CIf@Sis@Swi@@SAPAV123@AAVTPtrProvider@23@AA_JW4TReadTypeBehaviour@23@@Z @ 135 NONAME ; class Swi::Sis::CIf * Swi::Sis::CIf::NewL(class Swi::Sis::TPtrProvider &, long long &, enum Swi::Sis::TReadTypeBehaviour)
	?NewL@CInstallBlock@Sis@Swi@@SAPAV123@AAVTPtrProvider@23@AA_JW4TReadTypeBehaviour@23@@Z @ 136 NONAME ; class Swi::Sis::CInstallBlock * Swi::Sis::CInstallBlock::NewL(class Swi::Sis::TPtrProvider &, long long &, enum Swi::Sis::TReadTypeBehaviour)
	?NewL@CLanguage@Sis@Swi@@SAPAV123@AAVTPtrProvider@23@AA_JW4TReadTypeBehaviour@23@@Z @ 137 NONAME ; class Swi::Sis::CLanguage * Swi::Sis::CLanguage::NewL(class Swi::Sis::TPtrProvider &, long long &, enum Swi::Sis::TReadTypeBehaviour)
	?NewL@CLogo@Sis@Swi@@SAPAV123@AAVTPtrProvider@23@AA_JW4TReadTypeBehaviour@23@@Z @ 138 NONAME ; class Swi::Sis::CLogo * Swi::Sis::CLogo::NewL(class Swi::Sis::TPtrProvider &, long long &, enum Swi::Sis::TReadTypeBehaviour)
	?NewL@CPrerequisites@Sis@Swi@@SAPAV123@AAVTPtrProvider@23@AA_JW4TReadTypeBehaviour@23@@Z @ 139 NONAME ; class Swi::Sis::CPrerequisites * Swi::Sis::CPrerequisites::NewL(class Swi::Sis::TPtrProvider &, long long &, enum Swi::Sis::TReadTypeBehaviour)
	?NewL@CProperties@Sis@Swi@@SAPAV123@AAVTPtrProvider@23@AA_JW4TReadTypeBehaviour@23@@Z @ 140 NONAME ; class Swi::Sis::CProperties * Swi::Sis::CProperties::NewL(class Swi::Sis::TPtrProvider &, long long &, enum Swi::Sis::TReadTypeBehaviour)
	?NewL@CProperty@Sis@Swi@@SAPAV123@AAVTPtrProvider@23@AA_JW4TReadTypeBehaviour@23@@Z @ 141 NONAME ; class Swi::Sis::CProperty * Swi::Sis::CProperty::NewL(class Swi::Sis::TPtrProvider &, long long &, enum Swi::Sis::TReadTypeBehaviour)
	?NewL@CSignature@Sis@Swi@@SAPAV123@AAVTPtrProvider@23@AA_JW4TReadTypeBehaviour@23@@Z @ 142 NONAME ; class Swi::Sis::CSignature * Swi::Sis::CSignature::NewL(class Swi::Sis::TPtrProvider &, long long &, enum Swi::Sis::TReadTypeBehaviour)
	?NewL@CSignatureAlgorithm@Sis@Swi@@SAPAV123@AAVTPtrProvider@23@AA_JW4TReadTypeBehaviour@23@@Z @ 143 NONAME ; class Swi::Sis::CSignatureAlgorithm * Swi::Sis::CSignatureAlgorithm::NewL(class Swi::Sis::TPtrProvider &, long long &, enum Swi::Sis::TReadTypeBehaviour)
	?NewL@CSignatureCertificateChain@Sis@Swi@@SAPAV123@AAVTPtrProvider@23@AA_JW4TReadTypeBehaviour@23@@Z @ 144 NONAME ; class Swi::Sis::CSignatureCertificateChain * Swi::Sis::CSignatureCertificateChain::NewL(class Swi::Sis::TPtrProvider &, long long &, enum Swi::Sis::TReadTypeBehaviour)
	?NewL@CSupportedLanguages@Sis@Swi@@SAPAV123@AAVTPtrProvider@23@AA_JW4TReadTypeBehaviour@23@@Z @ 145 NONAME ; class Swi::Sis::CSupportedLanguages * Swi::Sis::CSupportedLanguages::NewL(class Swi::Sis::TPtrProvider &, long long &, enum Swi::Sis::TReadTypeBehaviour)
	?NewL@CVersionRange@Sis@Swi@@SAPAV123@AAVTPtrProvider@23@AA_JW4TReadTypeBehaviour@23@@Z @ 146 NONAME ; class Swi::Sis::CVersionRange * Swi::Sis::CVersionRange::NewL(class Swi::Sis::TPtrProvider &, long long &, enum Swi::Sis::TReadTypeBehaviour)
	?NewLC@CBlob@Sis@Swi@@SAPAV123@AAVTPtrProvider@23@AA_JW4TReadTypeBehaviour@23@@Z @ 147 NONAME ; class Swi::Sis::CBlob * Swi::Sis::CBlob::NewLC(class Swi::Sis::TPtrProvider &, long long &, enum Swi::Sis::TReadTypeBehaviour)
	?NewLC@CCapabilities@Sis@Swi@@SAPAV123@AAVTPtrProvider@23@AA_JW4TReadTypeBehaviour@23@@Z @ 148 NONAME ; class Swi::Sis::CCapabilities * Swi::Sis::CCapabilities::NewLC(class Swi::Sis::TPtrProvider &, long long &, enum Swi::Sis::TReadTypeBehaviour)
	?NewLC@CCertificateChain@Sis@Swi@@SAPAV123@AAVTPtrProvider@23@AA_JW4TReadTypeBehaviour@23@@Z @ 149 NONAME ; class Swi::Sis::CCertificateChain * Swi::Sis::CCertificateChain::NewLC(class Swi::Sis::TPtrProvider &, long long &, enum Swi::Sis::TReadTypeBehaviour)
	?NewLC@CController@Sis@Swi@@SAPAV123@AAVTPtrProvider@23@AA_JW4TReadTypeBehaviour@23@@Z @ 150 NONAME ; class Swi::Sis::CController * Swi::Sis::CController::NewLC(class Swi::Sis::TPtrProvider &, long long &, enum Swi::Sis::TReadTypeBehaviour)
	?NewLC@CDataIndex@Sis@Swi@@SAPAV123@AAVTPtrProvider@23@AA_JW4TReadTypeBehaviour@23@@Z @ 151 NONAME ; class Swi::Sis::CDataIndex * Swi::Sis::CDataIndex::NewLC(class Swi::Sis::TPtrProvider &, long long &, enum Swi::Sis::TReadTypeBehaviour)
	?NewLC@CDependency@Sis@Swi@@SAPAV123@AAVTPtrProvider@23@AA_JW4TReadTypeBehaviour@23@@Z @ 152 NONAME ; class Swi::Sis::CDependency * Swi::Sis::CDependency::NewLC(class Swi::Sis::TPtrProvider &, long long &, enum Swi::Sis::TReadTypeBehaviour)
	?NewLC@CElseIf@Sis@Swi@@SAPAV123@AAVTPtrProvider@23@AA_JW4TReadTypeBehaviour@23@@Z @ 153 NONAME ; class Swi::Sis::CElseIf * Swi::Sis::CElseIf::NewLC(class Swi::Sis::TPtrProvider &, long long &, enum Swi::Sis::TReadTypeBehaviour)
	?NewLC@CExpression@Sis@Swi@@SAPAV123@AAVTPtrProvider@23@AA_JW4TReadTypeBehaviour@23@@Z @ 154 NONAME ; class Swi::Sis::CExpression * Swi::Sis::CExpression::NewLC(class Swi::Sis::TPtrProvider &, long long &, enum Swi::Sis::TReadTypeBehaviour)
	?NewLC@CFileDescription@Sis@Swi@@SAPAV123@AAVTPtrProvider@23@AA_JW4TReadTypeBehaviour@23@@Z @ 155 NONAME ; class Swi::Sis::CFileDescription * Swi::Sis::CFileDescription::NewLC(class Swi::Sis::TPtrProvider &, long long &, enum Swi::Sis::TReadTypeBehaviour)
	?NewLC@CHash@Sis@Swi@@SAPAV123@AAVTPtrProvider@23@AA_JW4TReadTypeBehaviour@23@@Z @ 156 NONAME ; class Swi::Sis::CHash * Swi::Sis::CHash::NewLC(class Swi::Sis::TPtrProvider &, long long &, enum Swi::Sis::TReadTypeBehaviour)
	?NewLC@CIf@Sis@Swi@@SAPAV123@AAVTPtrProvider@23@AA_JW4TReadTypeBehaviour@23@@Z @ 157 NONAME ; class Swi::Sis::CIf * Swi::Sis::CIf::NewLC(class Swi::Sis::TPtrProvider &, long long &, enum Swi::Sis::TReadTypeBehaviour)
	?NewLC@CInstallBlock@Sis@Swi@@SAPAV123@AAVTPtrProvider@23@AA_JW4TReadTypeBehaviour@23@@Z @ 158 NONAME ; class Swi::Sis::CInstallBlock * Swi::Sis::CInstallBlock::NewLC(class Swi::Sis::TPtrProvider &, long long &, enum Swi::Sis::TReadTypeBehaviour)
	?NewLC@CLanguage@Sis@Swi@@SAPAV123@AAVTPtrProvider@23@AA_JW4TReadTypeBehaviour@23@@Z @ 159 NONAME ; class Swi::Sis::CLanguage * Swi::Sis::CLanguage::NewLC(class Swi::Sis::TPtrProvider &, long long &, enum Swi::Sis::TReadTypeBehaviour)
	?NewLC@CLogo@Sis@Swi@@SAPAV123@AAVTPtrProvider@23@AA_JW4TReadTypeBehaviour@23@@Z @ 160 NONAME ; class Swi::Sis::CLogo * Swi::Sis::CLogo::NewLC(class Swi::Sis::TPtrProvider &, long long &, enum Swi::Sis::TReadTypeBehaviour)
	?NewLC@CPrerequisites@Sis@Swi@@SAPAV123@AAVTPtrProvider@23@AA_JW4TReadTypeBehaviour@23@@Z @ 161 NONAME ; class Swi::Sis::CPrerequisites * Swi::Sis::CPrerequisites::NewLC(class Swi::Sis::TPtrProvider &, long long &, enum Swi::Sis::TReadTypeBehaviour)
	?NewLC@CProperties@Sis@Swi@@SAPAV123@AAVTPtrProvider@23@AA_JW4TReadTypeBehaviour@23@@Z @ 162 NONAME ; class Swi::Sis::CProperties * Swi::Sis::CProperties::NewLC(class Swi::Sis::TPtrProvider &, long long &, enum Swi::Sis::TReadTypeBehaviour)
	?NewLC@CProperty@Sis@Swi@@SAPAV123@AAVTPtrProvider@23@AA_JW4TReadTypeBehaviour@23@@Z @ 163 NONAME ; class Swi::Sis::CProperty * Swi::Sis::CProperty::NewLC(class Swi::Sis::TPtrProvider &, long long &, enum Swi::Sis::TReadTypeBehaviour)
	?NewLC@CSignature@Sis@Swi@@SAPAV123@AAVTPtrProvider@23@AA_JW4TReadTypeBehaviour@23@@Z @ 164 NONAME ; class Swi::Sis::CSignature * Swi::Sis::CSignature::NewLC(class Swi::Sis::TPtrProvider &, long long &, enum Swi::Sis::TReadTypeBehaviour)
	?NewLC@CSignatureAlgorithm@Sis@Swi@@SAPAV123@AAVTPtrProvider@23@AA_JW4TReadTypeBehaviour@23@@Z @ 165 NONAME ; class Swi::Sis::CSignatureAlgorithm * Swi::Sis::CSignatureAlgorithm::NewLC(class Swi::Sis::TPtrProvider &, long long &, enum Swi::Sis::TReadTypeBehaviour)
	?NewLC@CSignatureCertificateChain@Sis@Swi@@SAPAV123@AAVTPtrProvider@23@AA_JW4TReadTypeBehaviour@23@@Z @ 166 NONAME ; class Swi::Sis::CSignatureCertificateChain * Swi::Sis::CSignatureCertificateChain::NewLC(class Swi::Sis::TPtrProvider &, long long &, enum Swi::Sis::TReadTypeBehaviour)
	?NewLC@CSupportedLanguages@Sis@Swi@@SAPAV123@AAVTPtrProvider@23@AA_JW4TReadTypeBehaviour@23@@Z @ 167 NONAME ; class Swi::Sis::CSupportedLanguages * Swi::Sis::CSupportedLanguages::NewLC(class Swi::Sis::TPtrProvider &, long long &, enum Swi::Sis::TReadTypeBehaviour)
	?NewLC@CVersionRange@Sis@Swi@@SAPAV123@AAVTPtrProvider@23@AA_JW4TReadTypeBehaviour@23@@Z @ 168 NONAME ; class Swi::Sis::CVersionRange * Swi::Sis::CVersionRange::NewLC(class Swi::Sis::TPtrProvider &, long long &, enum Swi::Sis::TReadTypeBehaviour)
	?RemoveWithLastDependent@CController@Sis@Swi@@QBEHXZ @ 169 NONAME ; int Swi::Sis::CController::RemoveWithLastDependent(void) const
	?SetRemoveWithLastDependent@CController@Sis@Swi@@QAEXXZ @ 170 NONAME ; void Swi::Sis::CController::SetRemoveWithLastDependent(void)
	?GenerateControllerHashLC@CController@Sis@Swi@@QAEPAVCMessageDigest@@ABVTDesC8@@@Z @ 171 NONAME ; class CMessageDigest * Swi::Sis::CController::GenerateControllerHashLC(class TDesC8 const &)

