EXPORTS
	??1CInstallPrefs@Swi@@UAE@XZ @ 1 NONAME ; Swi::CInstallPrefs::~CInstallPrefs(void)
	?Cancel@Launcher@Swi@@SAHXZ @ 2 NONAME ; int Swi::Launcher::Cancel(void)
	?ExternalizeL@CInstallPrefs@Swi@@QBEXAAVRWriteStream@@@Z @ 3 NONAME ; void Swi::CInstallPrefs::ExternalizeL(class RWriteStream &) const
	?Install@Launcher@Swi@@SAHAAVMUiHandler@2@AAVMSisDataProvider@2@ABVCInstallPrefs@2@@Z @ 4 NONAME ; int Swi::Launcher::Install(class Swi::MUiHandler &, class Swi::MSisDataProvider &, class Swi::CInstallPrefs const &)
	?Install@Launcher@Swi@@SAHAAVMUiHandler@2@ABV?$TBuf@$0BAA@@@ABVCInstallPrefs@2@@Z @ 5 NONAME ; int Swi::Launcher::Install(class Swi::MUiHandler &, class TBuf<256> const &, class Swi::CInstallPrefs const &)
	?InternalizeL@CInstallPrefs@Swi@@QAEXAAVRReadStream@@@Z @ 6 NONAME ; void Swi::CInstallPrefs::InternalizeL(class RReadStream &)
	?NewL@CDisplayGrantCapabilities@Swi@@SAPAV12@ABVTAppInfo@2@ABVTCapabilitySet@@@Z @ 7 NONAME ; class Swi::CDisplayGrantCapabilities * Swi::CDisplayGrantCapabilities::NewL(class Swi::TAppInfo const &, class TCapabilitySet const &)
	?NewL@CInstallPrefs@Swi@@SAPAV12@AAVRReadStream@@@Z @ 8 NONAME ; class Swi::CInstallPrefs * Swi::CInstallPrefs::NewL(class RReadStream &)
	?NewL@CInstallPrefs@Swi@@SAPAV12@XZ @ 9 NONAME ; class Swi::CInstallPrefs * Swi::CInstallPrefs::NewL(void)
	?NewL@CShutdownServer@Swi@@SAPAV12@XZ @ 10 NONAME ; class Swi::CShutdownServer * Swi::CShutdownServer::NewL(void)
	?NewL@CSisHelperServer@Swi@@SAPAV12@AAUTSisHelperStartParams@2@@Z @ 11 NONAME ; class Swi::CSisHelperServer * Swi::CSisHelperServer::NewL(struct Swi::TSisHelperStartParams &)
	?NewLC@CDisplayGrantCapabilities@Swi@@SAPAV12@ABVTAppInfo@2@ABVTCapabilitySet@@@Z @ 12 NONAME ; class Swi::CDisplayGrantCapabilities * Swi::CDisplayGrantCapabilities::NewLC(class Swi::TAppInfo const &, class TCapabilitySet const &)
	?NewLC@CInstallPrefs@Swi@@SAPAV12@AAVRReadStream@@@Z @ 13 NONAME ; class Swi::CInstallPrefs * Swi::CInstallPrefs::NewLC(class RReadStream &)
	?NewLC@CInstallPrefs@Swi@@SAPAV12@XZ @ 14 NONAME ; class Swi::CInstallPrefs * Swi::CInstallPrefs::NewLC(void)
	?NewLC@CShutdownServer@Swi@@SAPAV12@XZ @ 15 NONAME ; class Swi::CShutdownServer * Swi::CShutdownServer::NewLC(void)
	?NewLC@CSisHelperServer@Swi@@SAPAV12@AAUTSisHelperStartParams@2@@Z @ 16 NONAME ; class Swi::CSisHelperServer * Swi::CSisHelperServer::NewLC(struct Swi::TSisHelperStartParams &)
	?ReturnResult@CDisplayGrantCapabilities@Swi@@QBEHXZ @ 17 NONAME ; int Swi::CDisplayGrantCapabilities::ReturnResult(void) const
	?Uninstall@Launcher@Swi@@SAHAAVMUiHandler@2@ABVTUid@@@Z @ 18 NONAME ; int Swi::Launcher::Uninstall(class Swi::MUiHandler &, class TUid const &)
	?Uninstall@Launcher@Swi@@SAHAAVMUiHandler@2@ABVCSisRegistryPackage@2@@Z @ 19 NONAME ; int Swi::Launcher::Uninstall(class Swi::MUiHandler &, class Swi::CSisRegistryPackage const &)
	?Install@Launcher@Swi@@SAHAAVMUiHandler@2@AAVRFile@@ABVCInstallPrefs@2@@Z @ 20 NONAME ; int Swi::Launcher::Install(class Swi::MUiHandler &, class RFile &, class Swi::CInstallPrefs const &)
	??1CAsyncLauncher@Swi@@UAE@XZ @ 21 NONAME ; Swi::CAsyncLauncher::~CAsyncLauncher(void)
	?InstallL@CAsyncLauncher@Swi@@QAEXAAVMUiHandler@2@AAVMSisDataProvider@2@ABVCInstallPrefs@2@AAVTRequestStatus@@@Z @ 22 NONAME ; void Swi::CAsyncLauncher::InstallL(class Swi::MUiHandler &, class Swi::MSisDataProvider &, class Swi::CInstallPrefs const &, class TRequestStatus &)
	?InstallL@CAsyncLauncher@Swi@@QAEXAAVMUiHandler@2@AAVRFile@@ABVCInstallPrefs@2@AAVTRequestStatus@@@Z @ 23 NONAME ; void Swi::CAsyncLauncher::InstallL(class Swi::MUiHandler &, class RFile &, class Swi::CInstallPrefs const &, class TRequestStatus &)
	?InstallL@CAsyncLauncher@Swi@@QAEXAAVMUiHandler@2@ABV?$TBuf@$0BAA@@@ABVCInstallPrefs@2@AAVTRequestStatus@@@Z @ 24 NONAME ; void Swi::CAsyncLauncher::InstallL(class Swi::MUiHandler &, class TBuf<256> const &, class Swi::CInstallPrefs const &, class TRequestStatus &)
	?NewL@CAsyncLauncher@Swi@@SAPAV12@XZ @ 25 NONAME ; class Swi::CAsyncLauncher * Swi::CAsyncLauncher::NewL(void)
	?NewLC@CAsyncLauncher@Swi@@SAPAV12@XZ @ 26 NONAME ; class Swi::CAsyncLauncher * Swi::CAsyncLauncher::NewLC(void)
	?UninstallL@CAsyncLauncher@Swi@@QAEXAAVMUiHandler@2@ABVCSisRegistryPackage@2@AAVTRequestStatus@@@Z @ 27 NONAME ; void Swi::CAsyncLauncher::UninstallL(class Swi::MUiHandler &, class Swi::CSisRegistryPackage const &, class TRequestStatus &)
	?UninstallL@CAsyncLauncher@Swi@@QAEXAAVMUiHandler@2@ABVTUid@@AAVTRequestStatus@@@Z @ 28 NONAME ; void Swi::CAsyncLauncher::UninstallL(class Swi::MUiHandler &, class TUid const &, class TRequestStatus &)
	?CancelOperation@CAsyncLauncher@Swi@@UAEXXZ @ 29 NONAME ; void Swi::CAsyncLauncher::CancelOperation(void)
	?GetComponentInfoL@CAsyncLauncher@Swi@@QAEXAAVMUiHandler@2@ABV?$TBuf@$0BAA@@@ABVCInstallPrefs@2@AAVCComponentInfo@Usif@@AAVTRequestStatus@@@Z @ 30 NONAME ; void Swi::CAsyncLauncher::GetComponentInfoL(class Swi::MUiHandler &, class TBuf<256> const &, class Swi::CInstallPrefs const &, class Usif::CComponentInfo &, class TRequestStatus &)
	?GetComponentInfoL@CAsyncLauncher@Swi@@QAEXAAVMUiHandler@2@AAVRFile@@ABVCInstallPrefs@2@AAVCComponentInfo@Usif@@AAVTRequestStatus@@@Z @ 31 NONAME ; void Swi::CAsyncLauncher::GetComponentInfoL(class Swi::MUiHandler &, class RFile &, class Swi::CInstallPrefs const &, class Usif::CComponentInfo &, class TRequestStatus &)
	?Install@Launcher@Swi@@SAHAAVMUiHandler@2@AAVMSisDataProvider@2@ABVCInstallPrefs@2@ABV?$RArray@H@@@Z @ 32 NONAME ; int Swi::Launcher::Install(class Swi::MUiHandler &, class Swi::MSisDataProvider &, class Swi::CInstallPrefs const &, class RArray<int> const &)
	?Install@Launcher@Swi@@SAHAAVMUiHandler@2@AAVRFile@@ABVCInstallPrefs@2@ABV?$RArray@H@@@Z @ 33 NONAME ; int Swi::Launcher::Install(class Swi::MUiHandler &, class RFile &, class Swi::CInstallPrefs const &, class RArray<int> const &)
	?InstallL@CAsyncLauncher@Swi@@QAEXAAVMUiHandler@2@AAVMSisDataProvider@2@ABVCInstallPrefs@2@ABV?$RArray@H@@AAVTRequestStatus@@@Z @ 34 NONAME ; void Swi::CAsyncLauncher::InstallL(class Swi::MUiHandler &, class Swi::MSisDataProvider &, class Swi::CInstallPrefs const &, class RArray<int> const &, class TRequestStatus &)
	?Install@Launcher@Swi@@SAHAAVMUiHandler@2@ABV?$TBuf@$0BAA@@@ABVCInstallPrefs@2@ABV?$RArray@H@@@Z @ 35 NONAME ; int Swi::Launcher::Install(class Swi::MUiHandler &, class TBuf<256> const &, class Swi::CInstallPrefs const &, class RArray<int> const &)
	?InstallL@CAsyncLauncher@Swi@@QAEXAAVMUiHandler@2@ABV?$TBuf@$0BAA@@@ABVCInstallPrefs@2@ABV?$RArray@H@@AAVTRequestStatus@@@Z @ 36 NONAME ; void Swi::CAsyncLauncher::InstallL(class Swi::MUiHandler &, class TBuf<256> const &, class Swi::CInstallPrefs const &, class RArray<int> const &, class TRequestStatus &)
	?InstallL@CAsyncLauncher@Swi@@QAEXAAVMUiHandler@2@AAVRFile@@ABVCInstallPrefs@2@ABV?$RArray@H@@AAVTRequestStatus@@@Z @ 37 NONAME ; void Swi::CAsyncLauncher::InstallL(class Swi::MUiHandler &, class RFile &, class Swi::CInstallPrefs const &, class RArray<int> const &, class TRequestStatus &)

