EXPORTS
	??1CHashContainer@Swi@@UAE@XZ @ 1 NONAME ; Swi::CHashContainer::~CHashContainer(void)
	??1CSisRegistryFileDescription@Swi@@UAE@XZ @ 2 NONAME ; Swi::CSisRegistryFileDescription::~CSisRegistryFileDescription(void)
	??1CSisRegistryPackage@Swi@@UAE@XZ @ 3 NONAME ; Swi::CSisRegistryPackage::~CSisRegistryPackage(void)
	??8CSisRegistryPackage@Swi@@QBEHABV01@@Z @ 4 NONAME ; int Swi::CSisRegistryPackage::operator==(class Swi::CSisRegistryPackage const &) const
	?AddDriveL@RSisRegistryWritableSession@Swi@@QAEXH@Z @ 5 NONAME ; void Swi::RSisRegistryWritableSession::AddDriveL(int)
	?AddEntryL@RSisRegistryWritableSession@Swi@@QAEXABVCApplication@2@ABVTDesC8@@_J@Z @ 6 NONAME ; void Swi::RSisRegistryWritableSession::AddEntryL(class Swi::CApplication const &, class TDesC8 const &, long long)
	?AddRemovableDrive@CSisRegistryToken@Swi@@QAEXH@Z @ 7 NONAME ABSENT ; void Swi::CSisRegistryToken::AddRemovableDrive(int)
	?AugmentationsL@RSisRegistryEntry@Swi@@QAEXAAV?$RPointerArray@VCSisRegistryPackage@Swi@@@@@Z @ 8 NONAME ; void Swi::RSisRegistryEntry::AugmentationsL(class RPointerArray<class Swi::CSisRegistryPackage> &)
	?AugmentationsL@RSisRegistryEntry@Swi@@QAEXAAV?$RPointerArray@VHBufC16@@@@0@Z @ 9 NONAME ; void Swi::RSisRegistryEntry::AugmentationsL(class RPointerArray<class HBufC16> &, class RPointerArray<class HBufC16> &)
	?CertificateChainsL@RSisRegistryEntry@Swi@@QAEXAAV?$RPointerArray@VHBufC8@@@@@Z @ 10 NONAME ; void Swi::RSisRegistryEntry::CertificateChainsL(class RPointerArray<class HBufC8> &)
	?Close@RSisRegistryEntry@Swi@@QAEXXZ @ 11 NONAME ; void Swi::RSisRegistryEntry::Close(void)
	?Connect@RSisRegistrySession@Swi@@QAEHXZ @ 12 NONAME ; int Swi::RSisRegistrySession::Connect(void)
	?ControllersL@RSisRegistryEntry@Swi@@QAEXAAV?$RPointerArray@VHBufC8@@@@@Z @ 13 NONAME ; void Swi::RSisRegistryEntry::ControllersL(class RPointerArray<class HBufC8> &)
	?ControllersL@RSisRegistryWritableEntry@Swi@@QAEXAAV?$RPointerArray@VCController@Sis@Swi@@@@@Z @ 14 NONAME ABSENT ; void Swi::RSisRegistryWritableEntry::ControllersL(class RPointerArray<class Swi::Sis::CController> &)
	?DeleteEntryL@RSisRegistryWritableSession@Swi@@QAEXABVCSisRegistryPackage@2@_J@Z @ 15 NONAME ; void Swi::RSisRegistryWritableSession::DeleteEntryL(class Swi::CSisRegistryPackage const &, long long)
	?DependenciesL@RSisRegistryEntry@Swi@@QAEXAAV?$RPointerArray@VCSisRegistryDependency@Swi@@@@@Z @ 16 NONAME ; void Swi::RSisRegistryEntry::DependenciesL(class RPointerArray<class Swi::CSisRegistryDependency> &)	
	?DependentPackagesL@RSisRegistryEntry@Swi@@QAEXAAV?$RPointerArray@VCSisRegistryPackage@Swi@@@@@Z @ 17 NONAME ; void Swi::RSisRegistryEntry::DependentPackagesL(class RPointerArray<class Swi::CSisRegistryPackage> &)
	?DependsOnL@CSisRegistryObject@Swi@@QBEXAAV?$RPointerArray@VCSisRegistryDependency@Swi@@@@@Z @ 18 NONAME ABSENT ; void Swi::CSisRegistryObject::DependsOnL(class RPointerArray<class Swi::CSisRegistryDependency> &) const
	?DependsOnObject@CSisRegistryObject@Swi@@QBEHABV12@@Z @ 19 NONAME ABSENT ; int Swi::CSisRegistryObject::DependsOnObject(class Swi::CSisRegistryObject const &) const
	?EmbeddedPackagesL@CSisRegistryObject@Swi@@QBEXAAV?$RPointerArray@VCSisRegistryPackage@Swi@@@@@Z @ 20 NONAME ABSENT ; void Swi::CSisRegistryObject::EmbeddedPackagesL(class RPointerArray<class Swi::CSisRegistryPackage> &) const
	?EmbeddedPackagesL@RSisRegistryEntry@Swi@@QAEXAAV?$RPointerArray@VCSisRegistryPackage@Swi@@@@@Z @ 21 NONAME ; void Swi::RSisRegistryEntry::EmbeddedPackagesL(class RPointerArray<class Swi::CSisRegistryPackage> &)	
	?EmbeddingPackagesL@RSisRegistryEntry@Swi@@QAEXAAV?$RPointerArray@VCSisRegistryPackage@Swi@@@@@Z @ 22 NONAME ; void Swi::RSisRegistryEntry::EmbeddingPackagesL(class RPointerArray<class Swi::CSisRegistryPackage> &)
	?EmbedsPackage@CSisRegistryObject@Swi@@QBEHABVCSisRegistryPackage@2@@Z @ 23 NONAME ABSENT ; int Swi::CSisRegistryObject::EmbedsPackage(class Swi::CSisRegistryPackage const &) const
	?ExternalizeL@CControllerInfo@Swi@@QBEXAAVRWriteStream@@@Z @ 24 NONAME ; void Swi::CControllerInfo::ExternalizeL(class RWriteStream &) const
	?ExternalizeL@CHashContainer@Swi@@QBEXAAVRWriteStream@@@Z @ 25 NONAME ; void Swi::CHashContainer::ExternalizeL(class RWriteStream &) const
	?ExternalizeL@CSisRegistryDependency@Swi@@QBEXAAVRWriteStream@@@Z @ 26 NONAME ; void Swi::CSisRegistryDependency::ExternalizeL(class RWriteStream &) const
	?ExternalizeL@CSisRegistryFileDescription@Swi@@QBEXAAVRWriteStream@@@Z @ 27 NONAME ; void Swi::CSisRegistryFileDescription::ExternalizeL(class RWriteStream &) const
	?ExternalizeL@CSisRegistryObject@Swi@@QBEXAAVRWriteStream@@@Z @ 28 NONAME ; void Swi::CSisRegistryObject::ExternalizeL(class RWriteStream &) const
	?ExternalizeL@CSisRegistryPackage@Swi@@QBEXAAVRWriteStream@@@Z @ 29 NONAME ; void Swi::CSisRegistryPackage::ExternalizeL(class RWriteStream &) const
	?ExternalizeL@CSisRegistryProperty@Swi@@QBEXAAVRWriteStream@@@Z @ 30 NONAME ; void Swi::CSisRegistryProperty::ExternalizeL(class RWriteStream &) const
	?ExternalizeL@CSisRegistryToken@Swi@@QBEXAAVRWriteStream@@@Z @ 31 NONAME ; void Swi::CSisRegistryToken::ExternalizeL(class RWriteStream &) const
	?FileDescriptionL@CSisRegistryObject@Swi@@QBEABVCSisRegistryFileDescription@2@ABVTDesC16@@@Z @ 32 NONAME ABSENT ; class Swi::CSisRegistryFileDescription const & Swi::CSisRegistryObject::FileDescriptionL(class TDesC16 const &) const
	?FileDescriptions@CSisRegistryObject@Swi@@QAEAAV?$RPointerArray@VCSisRegistryFileDescription@Swi@@@@XZ @ 33 NONAME ABSENT ; class RPointerArray<class Swi::CSisRegistryFileDescription> & Swi::CSisRegistryObject::FileDescriptions(void)
	?FileDescriptionsL@RSisRegistryWritableEntry@Swi@@QAEXAAV?$RPointerArray@VCSisRegistryFileDescription@Swi@@@@@Z @ 34 NONAME ; void Swi::RSisRegistryWritableEntry::FileDescriptionsL(class RPointerArray<class Swi::CSisRegistryFileDescription> &)
	?FilesL@RSisRegistryEntry@Swi@@QAEXAAV?$RPointerArray@VHBufC16@@@@@Z @ 35 NONAME ; void Swi::RSisRegistryEntry::FilesL(class RPointerArray<class HBufC16> &)
	?HashL@RSisRegistryEntry@Swi@@QAEPAVCHashContainer@2@ABVTDesC16@@@Z @ 36 NONAME ; class Swi::CHashContainer * Swi::RSisRegistryEntry::HashL(class TDesC16 const &)
	?HashL@RSisRegistrySession@Swi@@QAEPAVCHashContainer@2@ABVTDesC16@@@Z @ 37 NONAME ; class Swi::CHashContainer * Swi::RSisRegistrySession::HashL(class TDesC16 const &)
	?InRom@CSisRegistryObject@Swi@@QBEHXZ @ 38 NONAME ABSENT ; int Swi::CSisRegistryObject::InRom(void) const
	?InstallType@CSisRegistryObject@Swi@@QBE?AW4TInstallType@Sis@2@XZ @ 39 NONAME ABSENT ; enum Swi::Sis::TInstallType Swi::CSisRegistryObject::InstallType(void) const
	?InstallTypeL@RSisRegistryWritableEntry@Swi@@QAE?AW4TInstallType@Sis@2@XZ @ 40 NONAME ; enum Swi::Sis::TInstallType Swi::RSisRegistryWritableEntry::InstallTypeL(void)	
	?InstalledPackagesL@RSisRegistrySession@Swi@@QAEXAAV?$RPointerArray@VCSisRegistryPackage@Swi@@@@@Z @ 41 NONAME ; void Swi::RSisRegistrySession::InstalledPackagesL(class RPointerArray<class Swi::CSisRegistryPackage> &)
	?InstalledUidsL@RSisRegistrySession@Swi@@QAEXAAV?$RArray@VTUid@@@@@Z @ 42 NONAME ; void Swi::RSisRegistrySession::InstalledUidsL(class RArray<class TUid> &)
	?InternalizeL@CControllerInfo@Swi@@QAEXAAVRReadStream@@@Z @ 43 NONAME ; void Swi::CControllerInfo::InternalizeL(class RReadStream &)
	?InternalizeL@CHashContainer@Swi@@QAEXAAVRReadStream@@@Z @ 44 NONAME ; void Swi::CHashContainer::InternalizeL(class RReadStream &)
	?InternalizeL@CSisRegistryDependency@Swi@@QAEXAAVRReadStream@@@Z @ 45 NONAME ; void Swi::CSisRegistryDependency::InternalizeL(class RReadStream &)
	?InternalizeL@CSisRegistryFileDescription@Swi@@QAEXAAVRReadStream@@@Z @ 46 NONAME ; void Swi::CSisRegistryFileDescription::InternalizeL(class RReadStream &)
	?InternalizeL@CSisRegistryObject@Swi@@QAEXAAVRReadStream@@@Z @ 47 NONAME ; void Swi::CSisRegistryObject::InternalizeL(class RReadStream &)
	?InternalizeL@CSisRegistryPackage@Swi@@QAEXAAVRReadStream@@@Z @ 48 NONAME ; void Swi::CSisRegistryPackage::InternalizeL(class RReadStream &)
	?InternalizeL@CSisRegistryProperty@Swi@@QAEXAAVRReadStream@@@Z @ 49 NONAME ; void Swi::CSisRegistryProperty::InternalizeL(class RReadStream &)
	?InternalizeL@CSisRegistryToken@Swi@@QAEXAAVRReadStream@@@Z @ 50 NONAME ; void Swi::CSisRegistryToken::InternalizeL(class RReadStream &)
	?IsAugmentationL@RSisRegistryEntry@Swi@@QAEHXZ @ 51 NONAME ; int Swi::RSisRegistryEntry::IsAugmentationL(void)
	?IsBuiltInL@RSisRegistryEntry@Swi@@QAEHXZ @ 52 NONAME ABSENT ; int Swi::RSisRegistryEntry::IsBuiltInL(void)
	?IsCompatible@CSisRegistryDependency@Swi@@QBEHABVTVersion@@@Z @ 53 NONAME ; int Swi::CSisRegistryDependency::IsCompatible(class TVersion const &) const
	?IsInRomL@RSisRegistryEntry@Swi@@QAEHXZ @ 54 NONAME ; int Swi::RSisRegistryEntry::IsInRomL(void)
	?IsInstalledL@RSisRegistrySession@Swi@@QAEHAAVTDesC8@@@Z @ 55 NONAME ; int Swi::RSisRegistrySession::IsInstalledL(class TDesC8 &)
	?IsInstalledL@RSisRegistrySession@Swi@@QAEHVTUid@@@Z @ 56 NONAME ; int Swi::RSisRegistrySession::IsInstalledL(class TUid)
	?IsPresentL@RSisRegistryEntry@Swi@@QAEHXZ @ 57 NONAME ; int Swi::RSisRegistryEntry::IsPresentL(void)
	?IsSigned@CSisRegistryObject@Swi@@QBEHXZ @ 58 NONAME ABSENT ; int Swi::CSisRegistryObject::IsSigned(void) const
	?IsSignedL@RSisRegistryEntry@Swi@@QAEHXZ @ 59 NONAME ; int Swi::RSisRegistryEntry::IsSignedL(void)
	?LanguageL@RSisRegistryEntry@Swi@@QAE?AW4TLanguage@@XZ @ 60 NONAME ; enum TLanguage Swi::RSisRegistryEntry::LanguageL(void)
	?LocalizedVendorNameL@RSisRegistryEntry@Swi@@QAEPAVHBufC16@@XZ @ 61 NONAME ; class HBufC16 * Swi::RSisRegistryEntry::LocalizedVendorNameL(void)
	?ModifiableL@RSisRegistrySession@Swi@@QAEHABVTDesC16@@@Z @ 62 NONAME ; int Swi::RSisRegistrySession::ModifiableL(class TDesC16 const &)
	?NewL@CControllerInfo@Swi@@SAPAV12@AAVRReadStream@@@Z @ 63 NONAME ; class Swi::CControllerInfo * Swi::CControllerInfo::NewL(class RReadStream &)
	?NewL@CControllerInfo@Swi@@SAPAV12@ABV12@@Z @ 64 NONAME ; class Swi::CControllerInfo * Swi::CControllerInfo::NewL(class Swi::CControllerInfo const &)
	?NewL@CControllerInfo@Swi@@SAPAV12@VTVersion@@ABVCHashContainer@2@@Z @ 65 NONAME ; class Swi::CControllerInfo * Swi::CControllerInfo::NewL(class TVersion, class Swi::CHashContainer const &)
	?NewL@CHashContainer@Swi@@SAPAV12@AAVRReadStream@@@Z @ 66 NONAME ; class Swi::CHashContainer * Swi::CHashContainer::NewL(class RReadStream &)
	?NewL@CHashContainer@Swi@@SAPAV12@ABVCHash@Sis@2@@Z @ 67 NONAME ; class Swi::CHashContainer * Swi::CHashContainer::NewL(class Swi::Sis::CHash const &)
	?NewL@CHashContainer@Swi@@SAPAV12@W4THashId@CMessageDigest@@ABVTDesC8@@@Z @ 68 NONAME ; class Swi::CHashContainer * Swi::CHashContainer::NewL(enum CMessageDigest::THashId, class TDesC8 const &)
	?NewL@CSisRegistryDependency@Swi@@SAPAV12@ABVCDependency@Sis@2@@Z @ 69 NONAME ; class Swi::CSisRegistryDependency * Swi::CSisRegistryDependency::NewL(class Swi::Sis::CDependency const &)
	?NewL@CSisRegistryDependency@Swi@@SAPAV12@AAVRReadStream@@@Z @ 70 NONAME ; class Swi::CSisRegistryDependency * Swi::CSisRegistryDependency::NewL(class RReadStream &)
	?NewL@CSisRegistryDependency@Swi@@SAPAV12@ABV12@@Z @ 71 NONAME ; class Swi::CSisRegistryDependency * Swi::CSisRegistryDependency::NewL(class Swi::CSisRegistryDependency const &)
	?NewL@CSisRegistryFileDescription@Swi@@SAPAV12@AAVRReadStream@@@Z @ 72 NONAME ; class Swi::CSisRegistryFileDescription * Swi::CSisRegistryFileDescription::NewL(class RReadStream &)
	?NewL@CSisRegistryFileDescription@Swi@@SAPAV12@ABV12@@Z @ 73 NONAME ; class Swi::CSisRegistryFileDescription * Swi::CSisRegistryFileDescription::NewL(class Swi::CSisRegistryFileDescription const &)
	?NewL@CSisRegistryFileDescription@Swi@@SAPAV12@ABVCFileDescription@Sis@2@VTChar@@H@Z @ 74 NONAME ; class Swi::CSisRegistryFileDescription * Swi::CSisRegistryFileDescription::NewL(class Swi::Sis::CFileDescription const &, class TChar, int)
	?NewL@CSisRegistryObject@Swi@@SAPAV12@AAVRReadStream@@@Z @ 75 NONAME ; class Swi::CSisRegistryObject * Swi::CSisRegistryObject::NewL(class RReadStream &)
	?NewL@CSisRegistryObject@Swi@@SAPAV12@XZ @ 76 NONAME ; class Swi::CSisRegistryObject * Swi::CSisRegistryObject::NewL(void)
	?NewL@CSisRegistryPackage@Swi@@SAPAV12@AAVRReadStream@@@Z @ 77 NONAME ; class Swi::CSisRegistryPackage * Swi::CSisRegistryPackage::NewL(class RReadStream &)
	?NewL@CSisRegistryPackage@Swi@@SAPAV12@ABV12@@Z @ 78 NONAME ; class Swi::CSisRegistryPackage * Swi::CSisRegistryPackage::NewL(class Swi::CSisRegistryPackage const &)
	?NewL@CSisRegistryPackage@Swi@@SAPAV12@VTUid@@ABVTDesC16@@1@Z @ 79 NONAME ; class Swi::CSisRegistryPackage * Swi::CSisRegistryPackage::NewL(class TUid, class TDesC16 const &, class TDesC16 const &)
	?NewL@CSisRegistryProperty@Swi@@SAPAV12@ABVCProperty@Sis@2@@Z @ 80 NONAME ; class Swi::CSisRegistryProperty * Swi::CSisRegistryProperty::NewL(class Swi::Sis::CProperty const &)
	?NewL@CSisRegistryProperty@Swi@@SAPAV12@AAVRReadStream@@@Z @ 81 NONAME ; class Swi::CSisRegistryProperty * Swi::CSisRegistryProperty::NewL(class RReadStream &)
	?NewL@CSisRegistryToken@Swi@@SAPAV12@AAVRReadStream@@@Z @ 82 NONAME ; class Swi::CSisRegistryToken * Swi::CSisRegistryToken::NewL(class RReadStream &)
	?NewL@CSisRegistryToken@Swi@@SAPAV12@ABV12@@Z @ 83 NONAME ; class Swi::CSisRegistryToken * Swi::CSisRegistryToken::NewL(class Swi::CSisRegistryToken const &)
	?NewL@CSisRegistryToken@Swi@@SAPAV12@XZ @ 84 NONAME ; class Swi::CSisRegistryToken * Swi::CSisRegistryToken::NewL(void)
	?NewLC@CControllerInfo@Swi@@SAPAV12@AAVRReadStream@@@Z @ 85 NONAME ; class Swi::CControllerInfo * Swi::CControllerInfo::NewLC(class RReadStream &)
	?NewLC@CControllerInfo@Swi@@SAPAV12@ABV12@@Z @ 86 NONAME ; class Swi::CControllerInfo * Swi::CControllerInfo::NewLC(class Swi::CControllerInfo const &)
	?NewLC@CControllerInfo@Swi@@SAPAV12@VTVersion@@ABVCHashContainer@2@@Z @ 87 NONAME ; class Swi::CControllerInfo * Swi::CControllerInfo::NewLC(class TVersion, class Swi::CHashContainer const &)
	?NewLC@CHashContainer@Swi@@SAPAV12@AAVRReadStream@@@Z @ 88 NONAME ; class Swi::CHashContainer * Swi::CHashContainer::NewLC(class RReadStream &)
	?NewLC@CHashContainer@Swi@@SAPAV12@ABVCHash@Sis@2@@Z @ 89 NONAME ; class Swi::CHashContainer * Swi::CHashContainer::NewLC(class Swi::Sis::CHash const &)
	?NewLC@CHashContainer@Swi@@SAPAV12@W4THashId@CMessageDigest@@ABVTDesC8@@@Z @ 90 NONAME ; class Swi::CHashContainer * Swi::CHashContainer::NewLC(enum CMessageDigest::THashId, class TDesC8 const &)
	?NewLC@CSisRegistryDependency@Swi@@SAPAV12@ABVCDependency@Sis@2@@Z @ 91 NONAME ; class Swi::CSisRegistryDependency * Swi::CSisRegistryDependency::NewLC(class Swi::Sis::CDependency const &)
	?NewLC@CSisRegistryDependency@Swi@@SAPAV12@AAVRReadStream@@@Z @ 92 NONAME ; class Swi::CSisRegistryDependency * Swi::CSisRegistryDependency::NewLC(class RReadStream &)
	?NewLC@CSisRegistryDependency@Swi@@SAPAV12@ABV12@@Z @ 93 NONAME ; class Swi::CSisRegistryDependency * Swi::CSisRegistryDependency::NewLC(class Swi::CSisRegistryDependency const &)
	?NewLC@CSisRegistryFileDescription@Swi@@SAPAV12@AAVRReadStream@@@Z @ 94 NONAME ; class Swi::CSisRegistryFileDescription * Swi::CSisRegistryFileDescription::NewLC(class RReadStream &)
	?NewLC@CSisRegistryFileDescription@Swi@@SAPAV12@ABV12@@Z @ 95 NONAME ; class Swi::CSisRegistryFileDescription * Swi::CSisRegistryFileDescription::NewLC(class Swi::CSisRegistryFileDescription const &)
	?NewLC@CSisRegistryFileDescription@Swi@@SAPAV12@ABVCFileDescription@Sis@2@VTChar@@H@Z @ 96 NONAME ; class Swi::CSisRegistryFileDescription * Swi::CSisRegistryFileDescription::NewLC(class Swi::Sis::CFileDescription const &, class TChar, int)
	?NewLC@CSisRegistryObject@Swi@@SAPAV12@AAVRReadStream@@@Z @ 97 NONAME ; class Swi::CSisRegistryObject * Swi::CSisRegistryObject::NewLC(class RReadStream &)
	?NewLC@CSisRegistryObject@Swi@@SAPAV12@XZ @ 98 NONAME ; class Swi::CSisRegistryObject * Swi::CSisRegistryObject::NewLC(void)
	?NewLC@CSisRegistryPackage@Swi@@SAPAV12@AAVRReadStream@@@Z @ 99 NONAME ; class Swi::CSisRegistryPackage * Swi::CSisRegistryPackage::NewLC(class RReadStream &)
	?NewLC@CSisRegistryPackage@Swi@@SAPAV12@ABV12@@Z @ 100 NONAME ; class Swi::CSisRegistryPackage * Swi::CSisRegistryPackage::NewLC(class Swi::CSisRegistryPackage const &)
	?NewLC@CSisRegistryPackage@Swi@@SAPAV12@VTUid@@ABVTDesC16@@1@Z @ 101 NONAME ; class Swi::CSisRegistryPackage * Swi::CSisRegistryPackage::NewLC(class TUid, class TDesC16 const &, class TDesC16 const &)
	?NewLC@CSisRegistryProperty@Swi@@SAPAV12@ABVCProperty@Sis@2@@Z @ 102 NONAME ; class Swi::CSisRegistryProperty * Swi::CSisRegistryProperty::NewLC(class Swi::Sis::CProperty const &)
	?NewLC@CSisRegistryProperty@Swi@@SAPAV12@AAVRReadStream@@@Z @ 103 NONAME ; class Swi::CSisRegistryProperty * Swi::CSisRegistryProperty::NewLC(class RReadStream &)
	?NewLC@CSisRegistryToken@Swi@@SAPAV12@AAVRReadStream@@@Z @ 104 NONAME ; class Swi::CSisRegistryToken * Swi::CSisRegistryToken::NewLC(class RReadStream &)
	?NewLC@CSisRegistryToken@Swi@@SAPAV12@ABV12@@Z @ 105 NONAME ; class Swi::CSisRegistryToken * Swi::CSisRegistryToken::NewLC(class Swi::CSisRegistryToken const &)
	?NewLC@CSisRegistryToken@Swi@@SAPAV12@XZ @ 106 NONAME ; class Swi::CSisRegistryToken * Swi::CSisRegistryToken::NewLC(void)
	?Open@RSisRegistryEntry@Swi@@QAEHAAVRSisRegistrySession@2@ABVTDesC16@@1@Z @ 107 NONAME ; int Swi::RSisRegistryEntry::Open(class Swi::RSisRegistrySession &, class TDesC16 const &, class TDesC16 const &)
	?Open@RSisRegistryEntry@Swi@@QAEHAAVRSisRegistrySession@2@VTUid@@@Z @ 108 NONAME ; int Swi::RSisRegistryEntry::Open(class Swi::RSisRegistrySession &, class TUid)
	?OpenL@RSisRegistryEntry@Swi@@QAEHAAVRSisRegistrySession@2@ABVCSisRegistryPackage@2@@Z @ 109 NONAME ; int Swi::RSisRegistryEntry::OpenL(class Swi::RSisRegistrySession &, class Swi::CSisRegistryPackage const &)
	?PackageL@RSisRegistryEntry@Swi@@QAEPAVCSisRegistryPackage@2@XZ @ 110 NONAME ; class Swi::CSisRegistryPackage * Swi::RSisRegistryEntry::PackageL(void)
	?PackageNameL@RSisRegistryEntry@Swi@@QAEPAVHBufC16@@XZ @ 111 NONAME ; class HBufC16 * Swi::RSisRegistryEntry::PackageNameL(void)
	?PackageUsingFileL@RSisRegistryWritableSession@Swi@@QAEPAVCSisRegistryPackage@2@ABVTDesC16@@@Z @ 112 NONAME ABSENT ; class Swi::CSisRegistryPackage * Swi::RSisRegistryWritableSession::PackageUsingFileL(class TDesC16 const &)
	?PreInstalled@CSisRegistryObject@Swi@@QBEHXZ @ 113 NONAME ABSENT ; int Swi::CSisRegistryObject::PreInstalled(void) const
	?PreInstalledL@RSisRegistryEntry@Swi@@QAEHXZ @ 114 NONAME ; int Swi::RSisRegistryEntry::PreInstalledL(void)	
	?ProcessInRomControllerL@CSisRegistryObject@Swi@@QAEXABVCController@Sis@2@ABVTDesC8@@@Z @ 115 NONAME ; void Swi::CSisRegistryObject::ProcessInRomControllerL(class Swi::Sis::CController const &, class TDesC8 const &)
	?Property@CSisRegistryObject@Swi@@QBEHH@Z @ 116 NONAME ABSENT ; int Swi::CSisRegistryObject::Property(int) const
	?PropertyL@RSisRegistryEntry@Swi@@QAEHH@Z @ 117 NONAME ; int Swi::RSisRegistryEntry::PropertyL(int)
	?RemoveDriveL@RSisRegistryWritableSession@Swi@@QAEXH@Z @ 118 NONAME ABSENT ; void Swi::RSisRegistryWritableSession::RemoveDriveL(int)
	?RemoveRemovableDrive@CSisRegistryToken@Swi@@QAEXH@Z @ 119 NONAME ABSENT ; void Swi::CSisRegistryToken::RemoveRemovableDrive(int)
	?SelectedDriveL@RSisRegistryWritableEntry@Swi@@QAE?AVTChar@@XZ @ 120 NONAME ; class TChar Swi::RSisRegistryWritableEntry::SelectedDriveL(void)
	?SetFixedDrives@CSisRegistryToken@Swi@@QAEXI@Z @ 121 NONAME ABSENT ; void Swi::CSisRegistryToken::SetFixedDrives(unsigned int)
	?SidToPackageL@RSisRegistrySession@Swi@@QAEPAVCSisRegistryPackage@2@VTUid@@@Z @ 122 NONAME ; class Swi::CSisRegistryPackage * Swi::RSisRegistrySession::SidToPackageL(class TUid)
	?SidsL@RSisRegistryEntry@Swi@@QAEXAAV?$RArray@VTUid@@@@@Z @ 123 NONAME ; void Swi::RSisRegistryEntry::SidsL(class RArray<class TUid> &)
	?SizeL@CSisRegistryObject@Swi@@QBE_JXZ @ 124 NONAME ABSENT ; long long Swi::CSisRegistryObject::SizeL(void) const
	?SizeL@RSisRegistryEntry@Swi@@QAE_JXZ @ 125 NONAME ; long long Swi::RSisRegistryEntry::SizeL(void)
	?UidL@RSisRegistryEntry@Swi@@QAE?AVTUid@@XZ @ 126 NONAME ; class TUid Swi::RSisRegistryEntry::UidL(void)
	?UniqueVendorNameL@RSisRegistryEntry@Swi@@QAEPAVHBufC16@@XZ @ 127 NONAME ; class HBufC16 * Swi::RSisRegistryEntry::UniqueVendorNameL(void)
	?UpdateEntryL@RSisRegistryWritableSession@Swi@@QAEXABVCApplication@2@ABVTDesC8@@_J@Z @ 128 NONAME ; void Swi::RSisRegistryWritableSession::UpdateEntryL(class Swi::CApplication const &, class TDesC8 const &, long long)
	?VersionL@RSisRegistryEntry@Swi@@QAE?AVTVersion@@XZ @ 129 NONAME ; class TVersion Swi::RSisRegistryEntry::VersionL(void)
	?RegenerateCacheL@RSisRegistryWritableSession@Swi@@QAEXXZ @ 130 NONAME ABSENT ; void Swi::RSisRegistryWritableSession::RegenerateCacheL(void)
	?FileDescriptionL@CSisRegistryObject@Swi@@QBEABVCSisRegistryFileDescription@2@VTUid@@@Z @ 131 NONAME ABSENT ; class Swi::CSisRegistryFileDescription const & Swi::CSisRegistryObject::FileDescriptionL(class TUid) const
	?SidToFileNameL@RSisRegistrySession@Swi@@QAEXVTUid@@AAVTDes16@@@Z @ 132 NONAME ; void Swi::RSisRegistrySession::SidToFileNameL(class TUid, class TDes16 &)
	?SelectedDriveL@RSisRegistryEntry@Swi@@QAE?AVTChar@@XZ @ 133 NONAME ; class TChar Swi::RSisRegistryEntry::SelectedDriveL(void)
	?TrustL@RSisRegistryEntry@Swi@@QBE?AW4TSisPackageTrust@2@XZ @ 134 NONAME ; enum Swi::TSisPackageTrust Swi::RSisRegistryEntry::TrustL(void) const
	?TrustTimeStampL@RSisRegistryEntry@Swi@@QBE?AVTTime@@XZ @ 135 NONAME ; class TTime Swi::RSisRegistryEntry::TrustTimeStampL(void) const
	?InstallChainIndicies@CSisRegistryObject@Swi@@QBEABV?$RArray@H@@XZ @ 136 NONAME ; class RArray<int> const & Swi::CSisRegistryObject::InstallChainIndicies(void) const
	?SetTrustStatus@CSisRegistryObject@Swi@@QAEXABVTSisTrustStatus@2@@Z @ 137 NONAME ABSENT ; void Swi::CSisRegistryObject::SetTrustStatus(class Swi::TSisTrustStatus const &)
	?TrustStatus@CSisRegistryObject@Swi@@QBEABVTSisTrustStatus@2@XZ @ 138 NONAME ; class Swi::TSisTrustStatus const & Swi::CSisRegistryObject::TrustStatus(void) const
	?TrustStatusL@RSisRegistryEntry@Swi@@QAE?AVTSisTrustStatus@2@XZ @ 139 NONAME ; class Swi::TSisTrustStatus Swi::RSisRegistryEntry::TrustStatusL(void)
	?CancelRevocationStatusL@RSisRevocationEntry@Swi@@QAEXXZ @ 140 NONAME ; void Swi::RSisRevocationEntry::CancelRevocationStatusL(void)
	?CheckRevocationStatusL@RSisRevocationEntry@Swi@@QAEXABVTDesC8@@@Z @ 141 NONAME ; void Swi::RSisRevocationEntry::CheckRevocationStatusL(class TDesC8 const &)
	?CheckRevocationStatus@RSisRevocationEntry@Swi@@QAEXABVTDesC8@@AAVTRequestStatus@@@Z @ 142 NONAME ; void Swi::RSisRevocationEntry::CheckRevocationStatus(class TDesC8 const &, class TRequestStatus &)
	?NewL@CSisRegistryFileDescription@Swi@@SAPAV12@AAVCHashContainer@2@ABVTDesC16@@1W4TSISFileOperation@Sis@2@W4TSISFileOperationOptions@62@_JKVTUid@@@Z @ 143 NONAME ; class Swi::CSisRegistryFileDescription * Swi::CSisRegistryFileDescription::NewL(class Swi::CHashContainer &, class TDesC16 const &, class TDesC16 const &, enum Swi::Sis::TSISFileOperation, enum Swi::Sis::TSISFileOperationOptions, long long, unsigned long, class TUid)
	?NewL@CControllerInfo@Swi@@SAPAV12@VTVersion@@ABVCHashContainer@2@H@Z @ 144 NONAME ; class Swi::CControllerInfo * Swi::CControllerInfo::NewL(class TVersion, class Swi::CHashContainer const &, int)
	?NewLC@CControllerInfo@Swi@@SAPAV12@VTVersion@@ABVCHashContainer@2@H@Z @ 145 NONAME ; class Swi::CControllerInfo * Swi::CControllerInfo::NewLC(class TVersion, class Swi::CHashContainer const &, int)
	?IsSidPresentL@RSisRegistrySession@Swi@@QAEHVTUid@@@Z @ 146 NONAME ; int Swi::RSisRegistrySession::IsSidPresentL(class TUid)
	?IsDeletablePreInstalledL@RSisRegistryEntry@Swi@@QAEHXZ @ 147 NONAME ; int Swi::RSisRegistryEntry::IsDeletablePreInstalledL(void)
	?EmbeddedPackage@CSisRegistryObject@Swi@@QAEPAVCSisRegistryPackage@2@H@Z @ 148 NONAME ; class Swi::CSisRegistryPackage * Swi::CSisRegistryObject::EmbeddedPackage(int)
	?ShutdownAllAppsL@RSisRegistryEntry@Swi@@QAEHXZ @ 149 NONAME ; int Swi::RSisRegistryEntry::ShutdownAllAppsL(void)
	?VerifyControllerSignatureL@RSisRegistryEntry@Swi@@QAEHAAV?$RPointerArray@VCX509Certificate@@@@@Z @ 150 NONAME ; int Swi::RSisRegistryEntry::VerifyControllerSignatureL(class RPointerArray<class CX509Certificate> &)
	?RemoveWithLastDependent@CSisRegistryObject@Swi@@QBEHXZ @ 151 NONAME ; int Swi::CSisRegistryObject::RemoveWithLastDependent(void) const
	?RemoveWithLastDependentL@RSisRegistryEntry@Swi@@QAEHXZ @ 152 NONAME ; int Swi::RSisRegistryEntry::RemoveWithLastDependentL(void)
	?SetRemoveWithLastDependent@CSisRegistryObject@Swi@@QAEXXZ @ 153 NONAME ABSENT ; void Swi::CSisRegistryObject::SetRemoveWithLastDependent(void)
	?SetRemoveWithLastDependentL@RSisRegistryEntry@Swi@@QAEXVTUid@@@Z @ 154 NONAME ; void Swi::RSisRegistryEntry::SetRemoveWithLastDependentL(class TUid)
	?AugmentationsNumberL@RSisRegistryEntry@Swi@@QAEHXZ @ 155 NONAME ; int Swi::RSisRegistryEntry::AugmentationsNumberL(void)
	?RemovableL@RSisRegistryEntry@Swi@@QAEHXZ @ 156 NONAME ; int Swi::RSisRegistryEntry::RemovableL(void)
	?RemovablePackagesL@RSisRegistrySession@Swi@@QAEXAAV?$RPointerArray@VCSisRegistryPackage@Swi@@@@@Z @ 157 NONAME ; void Swi::RSisRegistrySession::RemovablePackagesL(class RPointerArray<class Swi::CSisRegistryPackage> &)
	?PackageExistsInRomL@RSisRegistryWritableSession@Swi@@QAEHABVTUid@@@Z @ 158 NONAME ; int Swi::RSisRegistryWritableSession::PackageExistsInRomL(class TUid const &)
	?RecoverL@RSisRegistrySession@Swi@@QAEXXZ @ 159 NONAME ; void Swi::RSisRegistrySession::RecoverL(void)
	?RetrieveLogFileL@RSisRegistrySession@Swi@@QAEXAAV?$RPointerArray@VCLogEntry@Swi@@@@@Z @ 160 NONAME ; void Swi::RSisRegistrySession::RetrieveLogFileL(class RPointerArray<class Swi::CLogEntry> &)
	?GetBuildVersion@CLogEntry@Swi@@QBEJXZ @ 161 NONAME ; long Swi::CLogEntry::GetBuildVersion(void) const
	?GetInstallType@CLogEntry@Swi@@QBE?AW4TSwiLogTypes@2@XZ @ 162 NONAME ; enum Swi::TSwiLogTypes Swi::CLogEntry::GetInstallType(void) const
	?GetMajorVersion@CLogEntry@Swi@@QBEJXZ @ 163 NONAME ; long Swi::CLogEntry::GetMajorVersion(void) const
	?GetMinorVersion@CLogEntry@Swi@@QBEJXZ @ 164 NONAME ; long Swi::CLogEntry::GetMinorVersion(void) const
	?GetPkgName@CLogEntry@Swi@@QBEABVTDesC16@@XZ @ 165 NONAME ; class TDesC16 const & Swi::CLogEntry::GetPkgName(void) const
	?GetTime@CLogEntry@Swi@@QBE?BVTTime@@XZ @ 166 NONAME ; class TTime const Swi::CLogEntry::GetTime(void) const
	?GetUid@CLogEntry@Swi@@QBE?BVTUid@@XZ @ 167 NONAME ; class TUid const Swi::CLogEntry::GetUid(void) const
	?GetFilesForRomApplicationL@RSisRegistryWritableSession@Swi@@QAEXABVTUid@@AAV?$RPointerArray@VHBufC16@@@@@Z @ 168 NONAME ; void Swi::RSisRegistryWritableSession::GetFilesForRomApplicationL(class TUid const &, class RPointerArray<class HBufC16> &)
	?InstalledDrivesL@RSisRegistryEntry@Swi@@QAEIXZ @ 169 NONAME ; unsigned int Swi::RSisRegistryEntry::InstalledDrivesL(void)
	?IsSignedBySuCertL@RSisRegistryEntry@Swi@@QAEHXZ @ 170 NONAME ; int Swi::RSisRegistryEntry::IsSignedBySuCertL(void)	
	?VerifyControllerSignatureL@RSisRegistryEntry@Swi@@QAEHAAV?$RPointerArray@VCX509Certificate@@@@H@Z @ 171 NONAME ; int Swi::RSisRegistryEntry::VerifyControllerSignatureL(class RPointerArray<class CX509Certificate> &, int)
	?SidToFileNameL@RSisRegistrySession@Swi@@QAEXVTUid@@AAVTDes16@@VTDriveUnit@@@Z @ 172 NONAME ; void Swi::RSisRegistrySession::SidToFileNameL(class TUid, class TDes16 &, class TDriveUnit)
	?NewL@CSisRegistryDependency@Swi@@SAPAV12@VTUid@@VTVersion@@1@Z @ 173 NONAME ; class Swi::CSisRegistryDependency * Swi::CSisRegistryDependency::NewL(class TUid, class TVersion, class TVersion)
	?NewL@CSisRegistryFileDescription@Swi@@SAPAV12@XZ @ 174 NONAME ; class Swi::CSisRegistryFileDescription * Swi::CSisRegistryFileDescription::NewL(void)
	?NewLC@CSisRegistryDependency@Swi@@SAPAV12@VTUid@@VTVersion@@1@Z @ 175 NONAME ; class Swi::CSisRegistryDependency * Swi::CSisRegistryDependency::NewLC(class TUid, class TVersion, class TVersion)
	?NewLC@CSisRegistryFileDescription@Swi@@SAPAV12@XZ @ 176 NONAME ; class Swi::CSisRegistryFileDescription * Swi::CSisRegistryFileDescription::NewLC(void)
	?ActivateComponentL@RSisRegistryWritableSession@Swi@@QAEXH@Z @ 177 NONAME ; void Swi::RSisRegistryWritableSession::ActivateComponentL(int)
	?DeactivateComponentL@RSisRegistryWritableSession@Swi@@QAEXH@Z @ 178 NONAME ; void Swi::RSisRegistryWritableSession::DeactivateComponentL(int)
	?CommitTransactionL@RSisRegistryWritableSession@Swi@@QAEXXZ @ 179 NONAME ; void Swi::RSisRegistryWritableSession::CommitTransactionL(void)
	?CreateTransactionL@RSisRegistryWritableSession@Swi@@QAEXXZ @ 180 NONAME ; void Swi::RSisRegistryWritableSession::CreateTransactionL(void)
	?RollbackTransactionL@RSisRegistryWritableSession@Swi@@QAEXXZ @ 181 NONAME ; void Swi::RSisRegistryWritableSession::RollbackTransactionL(void)
	?SerializedSize@CSisRegistryFileDescription@Swi@@QBEKXZ @ 182 NONAME ; unsigned long Swi::CSisRegistryFileDescription::SerializedSize(void) const
	?IsFileRegisteredL@RSisRegistrySession@Swi@@QAEHABVTDesC16@@@Z @ 183 NONAME ; int Swi::RSisRegistrySession::IsFileRegisteredL(class TDesC16 const &)
	?UpdateEntryL@RSisRegistryWritableSession@Swi@@QAEXABVCApplication@2@ABVTDesC8@@ABV?$RPointerArray@VCSoftwareTypeRegInfo@Usif@@@@_J@Z @ 184 NONAME ; void Swi::RSisRegistryWritableSession::UpdateEntryL(class Swi::CApplication const &, class TDesC8 const &, class RPointerArray<class Usif::CSoftwareTypeRegInfo> const &, long long)
	?AddEntryL@RSisRegistryWritableSession@Swi@@QAEXABVCApplication@2@ABVTDesC8@@ABV?$RPointerArray@VCSoftwareTypeRegInfo@Usif@@@@_J@Z @ 185 NONAME ; void Swi::RSisRegistryWritableSession::AddEntryL(class Swi::CApplication const &, class TDesC8 const &, class RPointerArray<class Usif::CSoftwareTypeRegInfo> const &, long long)
	?GetComponentIdForUidL@RSisRegistrySession@Swi@@QAEHABVTUid@@@Z @ 186 NONAME ; int Swi::RSisRegistrySession::GetComponentIdForUidL(class TUid const &)
	?SetNameL@CSisRegistryPackage@Swi@@QAEXABVTDesC16@@@Z @ 187 NONAME ; void Swi::CSisRegistryPackage::SetNameL(class TDesC16 const &)
	??0RSisRegistryHelper@Swi@@QAE@XZ @ 188 NONAME ABSENT ; Swi::RSisRegistryHelper::RSisRegistryHelper(void)
	?Connect@RSisRegistryHelper@Swi@@QAEHXZ @ 189 NONAME ABSENT ; int Swi::RSisRegistryHelper::Connect(void)
	?Close@RSisRegistryHelper@Swi@@QAEXXZ @ 190 NONAME ABSENT ; void Swi::RSisRegistryHelper::Close(void)
	?GetEquivalentLanguagesL@RSisRegistryHelper@Swi@@QAEXW4TLanguage@@AAV?$RArray@W4TLanguage@@@@@Z @ 191 NONAME ABSENT ; void Swi::RSisRegistryHelper::GetEquivalentLanguagesL(enum TLanguage, class RArray<enum TLanguage> &)
	?GetMatchingSupportedLanguagesL@RSisRegistryWritableEntry@Swi@@QAEXAAV?$RArray@W4TLanguage@@@@@Z @ 192 NONAME ; void Swi::RSisRegistryWritableEntry::GetMatchingSupportedLanguagesL(class RArray<enum TLanguage> &)
	?RegistryFilesL@RSisRegistryEntry@Swi@@QAEXAAV?$RPointerArray@VHBufC16@@@@@Z @ 193 NONAME ; void Swi::RSisRegistryEntry::RegistryFilesL(class RPointerArray<class HBufC16> &)
	?GetComponentIdsForUidL@RSisRegistrySession@Swi@@QAEXAAVTUid@@AAV?$RArray@H@@@Z @ 194 NONAME ; void Swi::RSisRegistrySession::GetComponentIdsForUidL(class TUid &, class RArray<int> &)
	?UpdateEntryL@RSisRegistryWritableSession@Swi@@QAEXABVCApplication@2@ABVCApplicationRegistrationData@Usif@@ABVCSisRegistryPackage@2@@Z @ 195 NONAME ; void Swi::RSisRegistryWritableSession::UpdateEntryL(class Swi::CApplication const &, class Usif::CApplicationRegistrationData const &, class Swi::CSisRegistryPackage const &)
	?GetAppUidsForComponentL@RSisRegistrySession@Swi@@QAEXAAHAAV?$RArray@VTUid@@@@@Z @ 196 NONAME ; void Swi::RSisRegistrySession::GetAppUidsForComponentL(int &, class RArray<class TUid> &)
	?GetComponentIdForPackageL@RSisRegistrySession@Swi@@QBEHABVTDesC16@@0@Z @ 197 NONAME ; int Swi::RSisRegistrySession::GetComponentIdForPackageL(class TDesC16 const &, class TDesC16 const &) const
	?AddEntryL@RSisRegistryWritableSession@Swi@@QAEXABVCApplicationRegistrationData@Usif@@ABVCSisRegistryPackage@2@@Z @ 198 NONAME ; void Swi::RSisRegistryWritableSession::AddEntryL(class Usif::CApplicationRegistrationData const &, class Swi::CSisRegistryPackage const &)
	?SetComponentPresenceL@RSisRegistryWritableSession@Swi@@QAEXHH@Z @ 199 NONAME ; void Swi::RSisRegistryWritableSession::SetComponentPresenceL(int, int)
	?RemoveAppRegInfoL@RSisRegistrySession@Swi@@QAEXABVTDesC16@@@Z @ 200 NONAME ; void Swi::RSisRegistrySession::RemoveAppRegInfoL(class TDesC16 const &)
	?AddAppRegInfoL@RSisRegistrySession@Swi@@QAEXABVTDesC16@@@Z @ 201 NONAME ; void Swi::RSisRegistrySession::AddAppRegInfoL(class TDesC16 const &)

